ARM GAS  C:\Users\Lab\AppData\Local\Temp\ccpurAxS.s 			page 1


   1              		.syntax unified
   2              		.cpu cortex-m3
   3              		.fpu softvfp
   4              		.eabi_attribute 20, 1
   5              		.eabi_attribute 21, 1
   6              		.eabi_attribute 23, 3
   7              		.eabi_attribute 24, 1
   8              		.eabi_attribute 25, 1
   9              		.eabi_attribute 26, 1
  10              		.eabi_attribute 30, 1
  11              		.eabi_attribute 34, 1
  12              		.eabi_attribute 18, 4
  13              		.thumb
  14              		.syntax unified
  15              		.file	"cyfitter_cfg.c"
  16              		.text
  17              	.Ltext0:
  18              		.cfi_sections	.debug_frame
  19              		.section	.text.CyClockStartupError,"ax",%progbits
  20              		.align	2
  21              		.thumb
  22              		.thumb_func
  23              		.type	CyClockStartupError, %function
  24              	CyClockStartupError:
  25              	.LFB3:
  26              		.file 1 "Generated_Source\\PSoC5\\cyfitter_cfg.c"
   1:Generated_Source\PSoC5/cyfitter_cfg.c **** 
   2:Generated_Source\PSoC5/cyfitter_cfg.c **** /*******************************************************************************
   3:Generated_Source\PSoC5/cyfitter_cfg.c **** * File Name: cyfitter_cfg.c
   4:Generated_Source\PSoC5/cyfitter_cfg.c **** * 
   5:Generated_Source\PSoC5/cyfitter_cfg.c **** * PSoC Creator  4.4
   6:Generated_Source\PSoC5/cyfitter_cfg.c **** *
   7:Generated_Source\PSoC5/cyfitter_cfg.c **** * Description:
   8:Generated_Source\PSoC5/cyfitter_cfg.c **** * This file contains device initialization code.
   9:Generated_Source\PSoC5/cyfitter_cfg.c **** * Except for the user defined sections in CyClockStartupError(), this file should not be modified.
  10:Generated_Source\PSoC5/cyfitter_cfg.c **** * This file is automatically generated by PSoC Creator.
  11:Generated_Source\PSoC5/cyfitter_cfg.c **** *
  12:Generated_Source\PSoC5/cyfitter_cfg.c **** ********************************************************************************
  13:Generated_Source\PSoC5/cyfitter_cfg.c **** * Copyright (c) 2007-2020 Cypress Semiconductor.  All rights reserved.
  14:Generated_Source\PSoC5/cyfitter_cfg.c **** * You may use this file only in accordance with the license, terms, conditions, 
  15:Generated_Source\PSoC5/cyfitter_cfg.c **** * disclaimers, and limitations in the end user license agreement accompanying 
  16:Generated_Source\PSoC5/cyfitter_cfg.c **** * the software package with which this file was provided.
  17:Generated_Source\PSoC5/cyfitter_cfg.c **** ********************************************************************************/
  18:Generated_Source\PSoC5/cyfitter_cfg.c **** 
  19:Generated_Source\PSoC5/cyfitter_cfg.c **** #include <string.h>
  20:Generated_Source\PSoC5/cyfitter_cfg.c **** #include "cytypes.h"
  21:Generated_Source\PSoC5/cyfitter_cfg.c **** #include "cydevice_trm.h"
  22:Generated_Source\PSoC5/cyfitter_cfg.c **** #include "cyfitter.h"
  23:Generated_Source\PSoC5/cyfitter_cfg.c **** #include "CyLib.h"
  24:Generated_Source\PSoC5/cyfitter_cfg.c **** #include "cyfitter_cfg.h"
  25:Generated_Source\PSoC5/cyfitter_cfg.c **** #include "cyapicallbacks.h"
  26:Generated_Source\PSoC5/cyfitter_cfg.c **** 
  27:Generated_Source\PSoC5/cyfitter_cfg.c **** #define CY_NEED_CYCLOCKSTARTUPERROR 1
  28:Generated_Source\PSoC5/cyfitter_cfg.c **** 
  29:Generated_Source\PSoC5/cyfitter_cfg.c **** 
  30:Generated_Source\PSoC5/cyfitter_cfg.c **** #if defined(__GNUC__) || defined(__ARMCC_VERSION)
  31:Generated_Source\PSoC5/cyfitter_cfg.c ****     #define CYPACKED 
ARM GAS  C:\Users\Lab\AppData\Local\Temp\ccpurAxS.s 			page 2


  32:Generated_Source\PSoC5/cyfitter_cfg.c ****     #define CYPACKED_ATTR __attribute__ ((packed))
  33:Generated_Source\PSoC5/cyfitter_cfg.c ****     #define CYALIGNED __attribute__ ((aligned))
  34:Generated_Source\PSoC5/cyfitter_cfg.c ****     #define CY_CFG_UNUSED __attribute__ ((unused))
  35:Generated_Source\PSoC5/cyfitter_cfg.c ****     #ifndef CY_CFG_SECTION
  36:Generated_Source\PSoC5/cyfitter_cfg.c ****         #define CY_CFG_SECTION __attribute__ ((section(".psocinit")))
  37:Generated_Source\PSoC5/cyfitter_cfg.c ****     #endif
  38:Generated_Source\PSoC5/cyfitter_cfg.c ****     
  39:Generated_Source\PSoC5/cyfitter_cfg.c ****     #if defined(__ARMCC_VERSION)
  40:Generated_Source\PSoC5/cyfitter_cfg.c ****         #define CY_CFG_MEMORY_BARRIER() __memory_changed()
  41:Generated_Source\PSoC5/cyfitter_cfg.c ****     #else
  42:Generated_Source\PSoC5/cyfitter_cfg.c ****         #define CY_CFG_MEMORY_BARRIER() __sync_synchronize()
  43:Generated_Source\PSoC5/cyfitter_cfg.c ****     #endif
  44:Generated_Source\PSoC5/cyfitter_cfg.c ****     
  45:Generated_Source\PSoC5/cyfitter_cfg.c **** #elif defined(__ICCARM__)
  46:Generated_Source\PSoC5/cyfitter_cfg.c ****     #include <intrinsics.h>
  47:Generated_Source\PSoC5/cyfitter_cfg.c **** 
  48:Generated_Source\PSoC5/cyfitter_cfg.c ****     #define CYPACKED __packed
  49:Generated_Source\PSoC5/cyfitter_cfg.c ****     #define CYPACKED_ATTR 
  50:Generated_Source\PSoC5/cyfitter_cfg.c ****     #define CYALIGNED _Pragma("data_alignment=4")
  51:Generated_Source\PSoC5/cyfitter_cfg.c ****     #define CY_CFG_UNUSED _Pragma("diag_suppress=Pe177")
  52:Generated_Source\PSoC5/cyfitter_cfg.c ****     #define CY_CFG_SECTION _Pragma("location=\".psocinit\"")
  53:Generated_Source\PSoC5/cyfitter_cfg.c ****     
  54:Generated_Source\PSoC5/cyfitter_cfg.c ****     #define CY_CFG_MEMORY_BARRIER() __DMB()
  55:Generated_Source\PSoC5/cyfitter_cfg.c ****     
  56:Generated_Source\PSoC5/cyfitter_cfg.c **** #else
  57:Generated_Source\PSoC5/cyfitter_cfg.c ****     #error Unsupported toolchain
  58:Generated_Source\PSoC5/cyfitter_cfg.c **** #endif
  59:Generated_Source\PSoC5/cyfitter_cfg.c **** 
  60:Generated_Source\PSoC5/cyfitter_cfg.c **** #ifndef CYCODE
  61:Generated_Source\PSoC5/cyfitter_cfg.c ****     #define CYCODE
  62:Generated_Source\PSoC5/cyfitter_cfg.c **** #endif
  63:Generated_Source\PSoC5/cyfitter_cfg.c **** #ifndef CYDATA
  64:Generated_Source\PSoC5/cyfitter_cfg.c ****     #define CYDATA
  65:Generated_Source\PSoC5/cyfitter_cfg.c **** #endif
  66:Generated_Source\PSoC5/cyfitter_cfg.c **** #ifndef CYFAR
  67:Generated_Source\PSoC5/cyfitter_cfg.c ****     #define CYFAR
  68:Generated_Source\PSoC5/cyfitter_cfg.c **** #endif
  69:Generated_Source\PSoC5/cyfitter_cfg.c **** #ifndef CYXDATA
  70:Generated_Source\PSoC5/cyfitter_cfg.c ****     #define CYXDATA
  71:Generated_Source\PSoC5/cyfitter_cfg.c **** #endif
  72:Generated_Source\PSoC5/cyfitter_cfg.c **** 
  73:Generated_Source\PSoC5/cyfitter_cfg.c **** 
  74:Generated_Source\PSoC5/cyfitter_cfg.c **** CY_CFG_UNUSED
  75:Generated_Source\PSoC5/cyfitter_cfg.c **** static void CYMEMZERO(void *s, size_t n);
  76:Generated_Source\PSoC5/cyfitter_cfg.c **** CY_CFG_UNUSED
  77:Generated_Source\PSoC5/cyfitter_cfg.c **** static void CYMEMZERO(void *s, size_t n)
  78:Generated_Source\PSoC5/cyfitter_cfg.c **** {
  79:Generated_Source\PSoC5/cyfitter_cfg.c **** 	(void)memset(s, 0, n);
  80:Generated_Source\PSoC5/cyfitter_cfg.c **** }
  81:Generated_Source\PSoC5/cyfitter_cfg.c **** CY_CFG_UNUSED
  82:Generated_Source\PSoC5/cyfitter_cfg.c **** static void CYCONFIGCPY(void *dest, const void *src, size_t n);
  83:Generated_Source\PSoC5/cyfitter_cfg.c **** CY_CFG_UNUSED
  84:Generated_Source\PSoC5/cyfitter_cfg.c **** static void CYCONFIGCPY(void *dest, const void *src, size_t n)
  85:Generated_Source\PSoC5/cyfitter_cfg.c **** {
  86:Generated_Source\PSoC5/cyfitter_cfg.c **** 	(void)memcpy(dest, src, n);
  87:Generated_Source\PSoC5/cyfitter_cfg.c **** }
  88:Generated_Source\PSoC5/cyfitter_cfg.c **** CY_CFG_UNUSED
ARM GAS  C:\Users\Lab\AppData\Local\Temp\ccpurAxS.s 			page 3


  89:Generated_Source\PSoC5/cyfitter_cfg.c **** static void CYCONFIGCPYCODE(void *dest, const void *src, size_t n);
  90:Generated_Source\PSoC5/cyfitter_cfg.c **** CY_CFG_UNUSED
  91:Generated_Source\PSoC5/cyfitter_cfg.c **** static void CYCONFIGCPYCODE(void *dest, const void *src, size_t n)
  92:Generated_Source\PSoC5/cyfitter_cfg.c **** {
  93:Generated_Source\PSoC5/cyfitter_cfg.c **** 	(void)memcpy(dest, src, n);
  94:Generated_Source\PSoC5/cyfitter_cfg.c **** }
  95:Generated_Source\PSoC5/cyfitter_cfg.c **** 
  96:Generated_Source\PSoC5/cyfitter_cfg.c **** 
  97:Generated_Source\PSoC5/cyfitter_cfg.c **** 
  98:Generated_Source\PSoC5/cyfitter_cfg.c **** 
  99:Generated_Source\PSoC5/cyfitter_cfg.c **** /* Clock startup error codes                                                   */
 100:Generated_Source\PSoC5/cyfitter_cfg.c **** #define CYCLOCKSTART_NO_ERROR    0u
 101:Generated_Source\PSoC5/cyfitter_cfg.c **** #define CYCLOCKSTART_XTAL_ERROR  1u
 102:Generated_Source\PSoC5/cyfitter_cfg.c **** #define CYCLOCKSTART_32KHZ_ERROR 2u
 103:Generated_Source\PSoC5/cyfitter_cfg.c **** #define CYCLOCKSTART_PLL_ERROR   3u
 104:Generated_Source\PSoC5/cyfitter_cfg.c **** #define CYCLOCKSTART_FLL_ERROR   4u
 105:Generated_Source\PSoC5/cyfitter_cfg.c **** #define CYCLOCKSTART_WCO_ERROR   5u
 106:Generated_Source\PSoC5/cyfitter_cfg.c **** 
 107:Generated_Source\PSoC5/cyfitter_cfg.c **** 
 108:Generated_Source\PSoC5/cyfitter_cfg.c **** #ifdef CY_NEED_CYCLOCKSTARTUPERROR
 109:Generated_Source\PSoC5/cyfitter_cfg.c **** /*******************************************************************************
 110:Generated_Source\PSoC5/cyfitter_cfg.c **** * Function Name: CyClockStartupError
 111:Generated_Source\PSoC5/cyfitter_cfg.c **** ********************************************************************************
 112:Generated_Source\PSoC5/cyfitter_cfg.c **** * Summary:
 113:Generated_Source\PSoC5/cyfitter_cfg.c **** *  If an error is encountered during clock configuration (crystal startup error,
 114:Generated_Source\PSoC5/cyfitter_cfg.c **** *  PLL lock error, etc.), the system will end up here.  Unless reimplemented by
 115:Generated_Source\PSoC5/cyfitter_cfg.c **** *  the customer, this function will stop in an infinite loop.
 116:Generated_Source\PSoC5/cyfitter_cfg.c **** *
 117:Generated_Source\PSoC5/cyfitter_cfg.c **** * Parameters:
 118:Generated_Source\PSoC5/cyfitter_cfg.c **** *   void
 119:Generated_Source\PSoC5/cyfitter_cfg.c **** *
 120:Generated_Source\PSoC5/cyfitter_cfg.c **** * Return:
 121:Generated_Source\PSoC5/cyfitter_cfg.c **** *   void
 122:Generated_Source\PSoC5/cyfitter_cfg.c **** *
 123:Generated_Source\PSoC5/cyfitter_cfg.c **** *******************************************************************************/
 124:Generated_Source\PSoC5/cyfitter_cfg.c **** CY_CFG_UNUSED
 125:Generated_Source\PSoC5/cyfitter_cfg.c **** static void CyClockStartupError(uint8 errorCode);
 126:Generated_Source\PSoC5/cyfitter_cfg.c **** CY_CFG_UNUSED
 127:Generated_Source\PSoC5/cyfitter_cfg.c **** static void CyClockStartupError(uint8 errorCode)
 128:Generated_Source\PSoC5/cyfitter_cfg.c **** {
  27              		.loc 1 128 0
  28              		.cfi_startproc
  29              		@ Volatile: function does not return.
  30              		@ args = 0, pretend = 0, frame = 0
  31              		@ frame_needed = 0, uses_anonymous_args = 0
  32              		@ link register save eliminated.
  33              	.LVL0:
  34              	.L2:
  35 0000 FEE7     		b	.L2
  36              		.cfi_endproc
  37              	.LFE3:
  38              		.size	CyClockStartupError, .-CyClockStartupError
  39 0002 00BF     		.section	.text.cfg_write_bytes32,"ax",%progbits
  40              		.align	2
  41              		.thumb
  42              		.thumb_func
  43              		.type	cfg_write_bytes32, %function
ARM GAS  C:\Users\Lab\AppData\Local\Temp\ccpurAxS.s 			page 4


  44              	cfg_write_bytes32:
  45              	.LFB4:
 129:Generated_Source\PSoC5/cyfitter_cfg.c ****     /* To remove the compiler warning if errorCode not used.                */
 130:Generated_Source\PSoC5/cyfitter_cfg.c ****     errorCode = errorCode;
 131:Generated_Source\PSoC5/cyfitter_cfg.c **** 
 132:Generated_Source\PSoC5/cyfitter_cfg.c ****     /* If we have a clock startup error (bad MHz crystal, PLL lock, etc.),  */
 133:Generated_Source\PSoC5/cyfitter_cfg.c ****     /* we will end up here to allow the customer to implement something to  */
 134:Generated_Source\PSoC5/cyfitter_cfg.c ****     /* deal with the clock condition.                                       */
 135:Generated_Source\PSoC5/cyfitter_cfg.c **** 
 136:Generated_Source\PSoC5/cyfitter_cfg.c **** #ifdef CY_CFG_CLOCK_STARTUP_ERROR_CALLBACK
 137:Generated_Source\PSoC5/cyfitter_cfg.c ****     CY_CFG_Clock_Startup_ErrorCallback();
 138:Generated_Source\PSoC5/cyfitter_cfg.c **** #else
 139:Generated_Source\PSoC5/cyfitter_cfg.c ****     /*  If not using CY_CFG_CLOCK_STARTUP_ERROR_CALLBACK, place your clock startup code here. */
 140:Generated_Source\PSoC5/cyfitter_cfg.c ****     /* `#START CyClockStartupError` */
 141:Generated_Source\PSoC5/cyfitter_cfg.c **** 
 142:Generated_Source\PSoC5/cyfitter_cfg.c **** 
 143:Generated_Source\PSoC5/cyfitter_cfg.c **** 
 144:Generated_Source\PSoC5/cyfitter_cfg.c ****     /* `#END` */
 145:Generated_Source\PSoC5/cyfitter_cfg.c **** 
 146:Generated_Source\PSoC5/cyfitter_cfg.c ****     while(1) {}
 147:Generated_Source\PSoC5/cyfitter_cfg.c **** #endif /* CY_CFG_CLOCK_STARTUP_ERROR_CALLBACK */
 148:Generated_Source\PSoC5/cyfitter_cfg.c **** }
 149:Generated_Source\PSoC5/cyfitter_cfg.c **** #endif
 150:Generated_Source\PSoC5/cyfitter_cfg.c **** 
 151:Generated_Source\PSoC5/cyfitter_cfg.c **** #define CY_CFG_BASE_ADDR_COUNT 26u
 152:Generated_Source\PSoC5/cyfitter_cfg.c **** CYPACKED typedef struct
 153:Generated_Source\PSoC5/cyfitter_cfg.c **** {
 154:Generated_Source\PSoC5/cyfitter_cfg.c **** 	uint8 offset;
 155:Generated_Source\PSoC5/cyfitter_cfg.c **** 	uint8 value;
 156:Generated_Source\PSoC5/cyfitter_cfg.c **** } CYPACKED_ATTR cy_cfg_addrvalue_t;
 157:Generated_Source\PSoC5/cyfitter_cfg.c **** 
 158:Generated_Source\PSoC5/cyfitter_cfg.c **** #define cy_cfg_addr_table ((const uint32 CYFAR *)0x48000000u)
 159:Generated_Source\PSoC5/cyfitter_cfg.c **** #define cy_cfg_data_table ((const cy_cfg_addrvalue_t CYFAR *)0x48000068u)
 160:Generated_Source\PSoC5/cyfitter_cfg.c **** 
 161:Generated_Source\PSoC5/cyfitter_cfg.c **** /* UDB_1_2_1_CONFIG Address: CYDEV_UCFG_B0_P3_U0_BASE Size (bytes): 128 */
 162:Generated_Source\PSoC5/cyfitter_cfg.c **** #define BS_UDB_1_2_1_CONFIG_VAL ((const uint8 CYFAR *)0x48000478u)
 163:Generated_Source\PSoC5/cyfitter_cfg.c **** 
 164:Generated_Source\PSoC5/cyfitter_cfg.c **** /* IOPINS0_7 Address: CYREG_PRT12_DR Size (bytes): 10 */
 165:Generated_Source\PSoC5/cyfitter_cfg.c **** #define BS_IOPINS0_7_VAL ((const uint8 CYFAR *)0x480004F8u)
 166:Generated_Source\PSoC5/cyfitter_cfg.c **** 
 167:Generated_Source\PSoC5/cyfitter_cfg.c **** /* IOPINS0_8 Address: CYREG_PRT15_DM0 Size (bytes): 8 */
 168:Generated_Source\PSoC5/cyfitter_cfg.c **** #define BS_IOPINS0_8_VAL ((const uint8 CYFAR *)0x48000504u)
 169:Generated_Source\PSoC5/cyfitter_cfg.c **** 
 170:Generated_Source\PSoC5/cyfitter_cfg.c **** /* IOPINS0_1 Address: CYREG_PRT1_DM0 Size (bytes): 8 */
 171:Generated_Source\PSoC5/cyfitter_cfg.c **** #define BS_IOPINS0_1_VAL ((const uint8 CYFAR *)0x4800050Cu)
 172:Generated_Source\PSoC5/cyfitter_cfg.c **** 
 173:Generated_Source\PSoC5/cyfitter_cfg.c **** /* IOPINS0_2 Address: CYREG_PRT2_DM0 Size (bytes): 8 */
 174:Generated_Source\PSoC5/cyfitter_cfg.c **** #define BS_IOPINS0_2_VAL ((const uint8 CYFAR *)0x48000514u)
 175:Generated_Source\PSoC5/cyfitter_cfg.c **** 
 176:Generated_Source\PSoC5/cyfitter_cfg.c **** /* CYDEV_CLKDIST_ACFG0_CFG0 Address: CYREG_CLKDIST_ACFG0_CFG0 Size (bytes): 4 */
 177:Generated_Source\PSoC5/cyfitter_cfg.c **** #define BS_CYDEV_CLKDIST_ACFG0_CFG0_VAL ((const uint8 CYFAR *)0x4800051Cu)
 178:Generated_Source\PSoC5/cyfitter_cfg.c **** 
 179:Generated_Source\PSoC5/cyfitter_cfg.c **** 
 180:Generated_Source\PSoC5/cyfitter_cfg.c **** /*******************************************************************************
 181:Generated_Source\PSoC5/cyfitter_cfg.c **** * Function Name: cfg_write_bytes32
 182:Generated_Source\PSoC5/cyfitter_cfg.c **** ********************************************************************************
 183:Generated_Source\PSoC5/cyfitter_cfg.c **** * Summary:
ARM GAS  C:\Users\Lab\AppData\Local\Temp\ccpurAxS.s 			page 5


 184:Generated_Source\PSoC5/cyfitter_cfg.c **** *  This function is used for setting up the chip configuration areas that
 185:Generated_Source\PSoC5/cyfitter_cfg.c **** *  contain relatively sparse data.
 186:Generated_Source\PSoC5/cyfitter_cfg.c **** *
 187:Generated_Source\PSoC5/cyfitter_cfg.c **** * Parameters:
 188:Generated_Source\PSoC5/cyfitter_cfg.c **** *   void
 189:Generated_Source\PSoC5/cyfitter_cfg.c **** *
 190:Generated_Source\PSoC5/cyfitter_cfg.c **** * Return:
 191:Generated_Source\PSoC5/cyfitter_cfg.c **** *   void
 192:Generated_Source\PSoC5/cyfitter_cfg.c **** *
 193:Generated_Source\PSoC5/cyfitter_cfg.c **** *******************************************************************************/
 194:Generated_Source\PSoC5/cyfitter_cfg.c **** static void cfg_write_bytes32(const uint32 addr_table[], const cy_cfg_addrvalue_t data_table[]);
 195:Generated_Source\PSoC5/cyfitter_cfg.c **** static void cfg_write_bytes32(const uint32 addr_table[], const cy_cfg_addrvalue_t data_table[])
 196:Generated_Source\PSoC5/cyfitter_cfg.c **** {
  46              		.loc 1 196 0
  47              		.cfi_startproc
  48              		@ args = 0, pretend = 0, frame = 0
  49              		@ frame_needed = 0, uses_anonymous_args = 0
  50              		@ link register save eliminated.
  51              	.LVL1:
  52              		.loc 1 196 0
  53 0000 F0B4     		push	{r4, r5, r6, r7}
  54              		.cfi_def_cfa_offset 16
  55              		.cfi_offset 4, -16
  56              		.cfi_offset 5, -12
  57              		.cfi_offset 6, -8
  58              		.cfi_offset 7, -4
  59              	.LVL2:
 197:Generated_Source\PSoC5/cyfitter_cfg.c **** 	/* For 32-bit little-endian architectures */
 198:Generated_Source\PSoC5/cyfitter_cfg.c **** 	uint32 i, j = 0u;
  60              		.loc 1 198 0
  61 0002 0022     		movs	r2, #0
 199:Generated_Source\PSoC5/cyfitter_cfg.c **** 	for (i = 0u; i < CY_CFG_BASE_ADDR_COUNT; i++)
  62              		.loc 1 199 0
  63 0004 1746     		mov	r7, r2
  64 0006 11E0     		b	.L4
  65              	.LVL3:
  66              	.L7:
  67              	.LBB2:
 200:Generated_Source\PSoC5/cyfitter_cfg.c **** 	{
 201:Generated_Source\PSoC5/cyfitter_cfg.c **** 		uint32 baseAddr = addr_table[i];
  68              		.loc 1 201 0
  69 0008 50F82760 		ldr	r6, [r0, r7, lsl #2]
  70              	.LVL4:
 202:Generated_Source\PSoC5/cyfitter_cfg.c **** 		uint8 count = (uint8)baseAddr;
  71              		.loc 1 202 0
  72 000c F3B2     		uxtb	r3, r6
  73              	.LVL5:
 203:Generated_Source\PSoC5/cyfitter_cfg.c **** 		baseAddr &= 0xFFFFFF00u;
  74              		.loc 1 203 0
  75 000e 26F0FF06 		bic	r6, r6, #255
  76              	.LVL6:
 204:Generated_Source\PSoC5/cyfitter_cfg.c **** 		while (count != 0u)
  77              		.loc 1 204 0
  78 0012 08E0     		b	.L5
  79              	.L6:
 205:Generated_Source\PSoC5/cyfitter_cfg.c **** 		{
 206:Generated_Source\PSoC5/cyfitter_cfg.c **** 			CY_SET_REG8((void *)(baseAddr + data_table[j].offset), data_table[j].value);
ARM GAS  C:\Users\Lab\AppData\Local\Temp\ccpurAxS.s 			page 6


  80              		.loc 1 206 0
  81 0014 01EB4205 		add	r5, r1, r2, lsl #1
  82 0018 11F81240 		ldrb	r4, [r1, r2, lsl #1]	@ zero_extendqisi2
  83 001c 6D78     		ldrb	r5, [r5, #1]	@ zero_extendqisi2
  84 001e A555     		strb	r5, [r4, r6]
 207:Generated_Source\PSoC5/cyfitter_cfg.c **** 			j++;
  85              		.loc 1 207 0
  86 0020 0132     		adds	r2, r2, #1
  87              	.LVL7:
 208:Generated_Source\PSoC5/cyfitter_cfg.c **** 			count--;
  88              		.loc 1 208 0
  89 0022 013B     		subs	r3, r3, #1
  90              	.LVL8:
  91 0024 DBB2     		uxtb	r3, r3
  92              	.LVL9:
  93              	.L5:
 204:Generated_Source\PSoC5/cyfitter_cfg.c **** 		{
  94              		.loc 1 204 0
  95 0026 002B     		cmp	r3, #0
  96 0028 F4D1     		bne	.L6
  97              	.LBE2:
 199:Generated_Source\PSoC5/cyfitter_cfg.c **** 	{
  98              		.loc 1 199 0 discriminator 2
  99 002a 0137     		adds	r7, r7, #1
 100              	.LVL10:
 101              	.L4:
 199:Generated_Source\PSoC5/cyfitter_cfg.c **** 	{
 102              		.loc 1 199 0 is_stmt 0 discriminator 1
 103 002c 192F     		cmp	r7, #25
 104 002e EBD9     		bls	.L7
 209:Generated_Source\PSoC5/cyfitter_cfg.c **** 		}
 210:Generated_Source\PSoC5/cyfitter_cfg.c **** 	}
 211:Generated_Source\PSoC5/cyfitter_cfg.c **** }
 105              		.loc 1 211 0 is_stmt 1
 106 0030 F0BC     		pop	{r4, r5, r6, r7}
 107              		.cfi_restore 7
 108              		.cfi_restore 6
 109              		.cfi_restore 5
 110              		.cfi_restore 4
 111              		.cfi_def_cfa_offset 0
 112              	.LVL11:
 113 0032 7047     		bx	lr
 114              		.cfi_endproc
 115              	.LFE4:
 116              		.size	cfg_write_bytes32, .-cfg_write_bytes32
 117              		.section	.text.AnalogSetDefault,"ax",%progbits
 118              		.align	2
 119              		.thumb
 120              		.thumb_func
 121              		.type	AnalogSetDefault, %function
 122              	AnalogSetDefault:
 123              	.LFB6:
 212:Generated_Source\PSoC5/cyfitter_cfg.c **** 
 213:Generated_Source\PSoC5/cyfitter_cfg.c **** /*******************************************************************************
 214:Generated_Source\PSoC5/cyfitter_cfg.c **** * Function Name: ClockSetup
 215:Generated_Source\PSoC5/cyfitter_cfg.c **** ********************************************************************************
 216:Generated_Source\PSoC5/cyfitter_cfg.c **** *
ARM GAS  C:\Users\Lab\AppData\Local\Temp\ccpurAxS.s 			page 7


 217:Generated_Source\PSoC5/cyfitter_cfg.c **** * Summary:
 218:Generated_Source\PSoC5/cyfitter_cfg.c **** *  Performs the initialization of all of the clocks in the device based on the
 219:Generated_Source\PSoC5/cyfitter_cfg.c **** *  settings in the Clock tab of the DWR.  This includes enabling the requested
 220:Generated_Source\PSoC5/cyfitter_cfg.c **** *  clocks and setting the necessary dividers to produce the desired frequency. 
 221:Generated_Source\PSoC5/cyfitter_cfg.c **** *
 222:Generated_Source\PSoC5/cyfitter_cfg.c **** * Parameters:
 223:Generated_Source\PSoC5/cyfitter_cfg.c **** *  void
 224:Generated_Source\PSoC5/cyfitter_cfg.c **** *
 225:Generated_Source\PSoC5/cyfitter_cfg.c **** * Return:
 226:Generated_Source\PSoC5/cyfitter_cfg.c **** *  void
 227:Generated_Source\PSoC5/cyfitter_cfg.c **** *
 228:Generated_Source\PSoC5/cyfitter_cfg.c **** *******************************************************************************/
 229:Generated_Source\PSoC5/cyfitter_cfg.c **** static void ClockSetup(void);
 230:Generated_Source\PSoC5/cyfitter_cfg.c **** static void ClockSetup(void)
 231:Generated_Source\PSoC5/cyfitter_cfg.c **** {
 232:Generated_Source\PSoC5/cyfitter_cfg.c **** 	uint32 timeout;
 233:Generated_Source\PSoC5/cyfitter_cfg.c **** 	uint8 pllLock;
 234:Generated_Source\PSoC5/cyfitter_cfg.c **** 
 235:Generated_Source\PSoC5/cyfitter_cfg.c **** 
 236:Generated_Source\PSoC5/cyfitter_cfg.c **** 	/* Configure Digital Clocks based on settings from Clock DWR */
 237:Generated_Source\PSoC5/cyfitter_cfg.c **** 	CY_SET_XTND_REG16((void CYFAR *)(CYREG_CLKDIST_DCFG0_CFG0), 0x0000u);
 238:Generated_Source\PSoC5/cyfitter_cfg.c **** 	CY_SET_XTND_REG8((void CYFAR *)(CYREG_CLKDIST_DCFG0_CFG0 + 0x2u), 0x50u);
 239:Generated_Source\PSoC5/cyfitter_cfg.c **** 	CY_SET_XTND_REG16((void CYFAR *)(CYREG_CLKDIST_DCFG1_CFG0), 0x0033u);
 240:Generated_Source\PSoC5/cyfitter_cfg.c **** 	CY_SET_XTND_REG8((void CYFAR *)(CYREG_CLKDIST_DCFG1_CFG0 + 0x2u), 0x18u);
 241:Generated_Source\PSoC5/cyfitter_cfg.c **** 	CY_SET_XTND_REG16((void CYFAR *)(CYREG_CLKDIST_DCFG2_CFG0), 0x0743u);
 242:Generated_Source\PSoC5/cyfitter_cfg.c **** 	CY_SET_XTND_REG8((void CYFAR *)(CYREG_CLKDIST_DCFG2_CFG0 + 0x2u), 0x18u);
 243:Generated_Source\PSoC5/cyfitter_cfg.c **** 
 244:Generated_Source\PSoC5/cyfitter_cfg.c **** 	/* Configure Analog Clocks based on settings from Clock DWR */
 245:Generated_Source\PSoC5/cyfitter_cfg.c **** 	CYCONFIGCPY((void CYFAR *)(CYREG_CLKDIST_ACFG0_CFG0), (const void CYFAR *)(BS_CYDEV_CLKDIST_ACFG0_
 246:Generated_Source\PSoC5/cyfitter_cfg.c **** 
 247:Generated_Source\PSoC5/cyfitter_cfg.c **** 	/* Configure ILO based on settings from Clock DWR */
 248:Generated_Source\PSoC5/cyfitter_cfg.c **** 	CY_SET_XTND_REG8((void CYFAR *)(CYREG_SLOWCLK_ILO_CR0), 0x02u);
 249:Generated_Source\PSoC5/cyfitter_cfg.c **** 	CY_SET_XTND_REG8((void CYFAR *)(CYREG_CLKDIST_CR), 0x08u);
 250:Generated_Source\PSoC5/cyfitter_cfg.c **** 
 251:Generated_Source\PSoC5/cyfitter_cfg.c **** 	/* Configure IMO based on settings from Clock DWR */
 252:Generated_Source\PSoC5/cyfitter_cfg.c **** 	CY_SET_XTND_REG8((void CYFAR *)(CYREG_FASTCLK_IMO_CR), 0x03u);
 253:Generated_Source\PSoC5/cyfitter_cfg.c **** 	CY_SET_XTND_REG8((void CYFAR *)(CYREG_IMO_TR1), (CY_GET_XTND_REG8((void CYFAR *)CYREG_FLSHID_CUST_
 254:Generated_Source\PSoC5/cyfitter_cfg.c **** 
 255:Generated_Source\PSoC5/cyfitter_cfg.c **** 	/* Configure PLL based on settings from Clock DWR */
 256:Generated_Source\PSoC5/cyfitter_cfg.c **** 	CY_SET_XTND_REG16((void CYFAR *)(CYREG_FASTCLK_PLL_P), 0x0008u);
 257:Generated_Source\PSoC5/cyfitter_cfg.c **** 	CY_SET_XTND_REG16((void CYFAR *)(CYREG_FASTCLK_PLL_CFG0), 0x1251u);
 258:Generated_Source\PSoC5/cyfitter_cfg.c **** 	/* Wait up to 250us for the PLL to lock */
 259:Generated_Source\PSoC5/cyfitter_cfg.c **** 	pllLock = 0u;
 260:Generated_Source\PSoC5/cyfitter_cfg.c **** 	for (timeout = 250u / 10u; (timeout > 0u) && (pllLock != 0x03u); timeout--)
 261:Generated_Source\PSoC5/cyfitter_cfg.c **** 	{ 
 262:Generated_Source\PSoC5/cyfitter_cfg.c **** 		pllLock = 0x03u & ((uint8)((uint8)pllLock << 1) | ((CY_GET_XTND_REG8((void CYFAR *)CYREG_FASTCLK_
 263:Generated_Source\PSoC5/cyfitter_cfg.c **** 		CyDelayCycles(10u * 48u); /* Delay 10us based on 48MHz clock */
 264:Generated_Source\PSoC5/cyfitter_cfg.c **** 	}
 265:Generated_Source\PSoC5/cyfitter_cfg.c **** 	/* If we ran out of time the PLL didn't lock so go to the error function */
 266:Generated_Source\PSoC5/cyfitter_cfg.c **** 	if (timeout == 0u)
 267:Generated_Source\PSoC5/cyfitter_cfg.c **** 	{
 268:Generated_Source\PSoC5/cyfitter_cfg.c **** 		CyClockStartupError(CYCLOCKSTART_PLL_ERROR);
 269:Generated_Source\PSoC5/cyfitter_cfg.c **** 	}
 270:Generated_Source\PSoC5/cyfitter_cfg.c **** 
 271:Generated_Source\PSoC5/cyfitter_cfg.c **** 	/* Configure Bus/Master Clock based on settings from Clock DWR */
 272:Generated_Source\PSoC5/cyfitter_cfg.c **** 	CY_SET_XTND_REG16((void CYFAR *)(CYREG_CLKDIST_MSTR0), 0x0100u);
 273:Generated_Source\PSoC5/cyfitter_cfg.c **** 	CY_SET_XTND_REG8((void CYFAR *)(CYREG_CLKDIST_MSTR0), 0x07u);
ARM GAS  C:\Users\Lab\AppData\Local\Temp\ccpurAxS.s 			page 8


 274:Generated_Source\PSoC5/cyfitter_cfg.c **** 	CY_SET_XTND_REG8((void CYFAR *)(CYREG_CLKDIST_BCFG0), 0x00u);
 275:Generated_Source\PSoC5/cyfitter_cfg.c **** 	CY_SET_XTND_REG8((void CYFAR *)(CYREG_CLKDIST_BCFG2), 0x48u);
 276:Generated_Source\PSoC5/cyfitter_cfg.c **** 	CY_SET_XTND_REG8((void CYFAR *)(CYREG_CLKDIST_MSTR0), 0x00u);
 277:Generated_Source\PSoC5/cyfitter_cfg.c **** 	CY_SET_XTND_REG8((void CYFAR *)(CYREG_CLKDIST_LD), 0x02u);
 278:Generated_Source\PSoC5/cyfitter_cfg.c **** 	CY_SET_XTND_REG8((void CYFAR *)(CYREG_CLKDIST_DLY1), 0x04u);
 279:Generated_Source\PSoC5/cyfitter_cfg.c **** 
 280:Generated_Source\PSoC5/cyfitter_cfg.c **** 	CY_SET_XTND_REG8((void CYFAR *)(CYREG_PM_ACT_CFG2), ((CY_GET_XTND_REG8((void CYFAR *)CYREG_PM_ACT_
 281:Generated_Source\PSoC5/cyfitter_cfg.c **** 	CY_SET_XTND_REG8((void CYFAR *)(CYREG_PM_ACT_CFG1), ((CY_GET_XTND_REG8((void CYFAR *)CYREG_PM_ACT_
 282:Generated_Source\PSoC5/cyfitter_cfg.c **** 	CY_SET_XTND_REG8((void CYFAR *)(CYREG_PM_ACT_CFG0), ((CY_GET_XTND_REG8((void CYFAR *)CYREG_PM_ACT_
 283:Generated_Source\PSoC5/cyfitter_cfg.c **** }
 284:Generated_Source\PSoC5/cyfitter_cfg.c **** 
 285:Generated_Source\PSoC5/cyfitter_cfg.c **** 
 286:Generated_Source\PSoC5/cyfitter_cfg.c **** /* Analog API Functions */
 287:Generated_Source\PSoC5/cyfitter_cfg.c **** 
 288:Generated_Source\PSoC5/cyfitter_cfg.c **** 
 289:Generated_Source\PSoC5/cyfitter_cfg.c **** /*******************************************************************************
 290:Generated_Source\PSoC5/cyfitter_cfg.c **** * Function Name: AnalogSetDefault
 291:Generated_Source\PSoC5/cyfitter_cfg.c **** ********************************************************************************
 292:Generated_Source\PSoC5/cyfitter_cfg.c **** *
 293:Generated_Source\PSoC5/cyfitter_cfg.c **** * Summary:
 294:Generated_Source\PSoC5/cyfitter_cfg.c **** *  Sets up the analog portions of the chip to default values based on chip
 295:Generated_Source\PSoC5/cyfitter_cfg.c **** *  configuration options from the project.
 296:Generated_Source\PSoC5/cyfitter_cfg.c **** *
 297:Generated_Source\PSoC5/cyfitter_cfg.c **** * Parameters:
 298:Generated_Source\PSoC5/cyfitter_cfg.c **** *  void
 299:Generated_Source\PSoC5/cyfitter_cfg.c **** *
 300:Generated_Source\PSoC5/cyfitter_cfg.c **** * Return:
 301:Generated_Source\PSoC5/cyfitter_cfg.c **** *  void
 302:Generated_Source\PSoC5/cyfitter_cfg.c **** *
 303:Generated_Source\PSoC5/cyfitter_cfg.c **** *******************************************************************************/
 304:Generated_Source\PSoC5/cyfitter_cfg.c **** static void AnalogSetDefault(void);
 305:Generated_Source\PSoC5/cyfitter_cfg.c **** static void AnalogSetDefault(void)
 306:Generated_Source\PSoC5/cyfitter_cfg.c **** {
 124              		.loc 1 306 0
 125              		.cfi_startproc
 126              		@ args = 0, pretend = 0, frame = 0
 127              		@ frame_needed = 0, uses_anonymous_args = 0
 128              		@ link register save eliminated.
 307:Generated_Source\PSoC5/cyfitter_cfg.c **** 	uint8 bg_xover_inl_trim = CY_GET_XTND_REG8((void CYFAR *)(CYREG_FLSHID_MFG_CFG_BG_XOVER_INL_TRIM +
 129              		.loc 1 307 0
 130 0000 0A4B     		ldr	r3, .L10
 131 0002 1B78     		ldrb	r3, [r3]	@ zero_extendqisi2
 132 0004 DBB2     		uxtb	r3, r3
 133              	.LVL12:
 308:Generated_Source\PSoC5/cyfitter_cfg.c **** 	CY_SET_XTND_REG8((void CYFAR *)(CYREG_BG_DFT0), (bg_xover_inl_trim & 0x07u));
 134              		.loc 1 308 0
 135 0006 03F00701 		and	r1, r3, #7
 136 000a 094A     		ldr	r2, .L10+4
 137 000c 1170     		strb	r1, [r2]
 309:Generated_Source\PSoC5/cyfitter_cfg.c **** 	CY_SET_XTND_REG8((void CYFAR *)(CYREG_BG_DFT1), ((bg_xover_inl_trim >> 4) & 0x0Fu));
 138              		.loc 1 309 0
 139 000e 1B09     		lsrs	r3, r3, #4
 140              	.LVL13:
 141 0010 0132     		adds	r2, r2, #1
 142 0012 1370     		strb	r3, [r2]
 310:Generated_Source\PSoC5/cyfitter_cfg.c **** 	CY_SET_XTND_REG8((void CYFAR *)CYREG_PRT15_AG, 0x01u);
 143              		.loc 1 310 0
ARM GAS  C:\Users\Lab\AppData\Local\Temp\ccpurAxS.s 			page 9


 144 0014 0122     		movs	r2, #1
 145 0016 074B     		ldr	r3, .L10+8
 146 0018 1A70     		strb	r2, [r3]
 311:Generated_Source\PSoC5/cyfitter_cfg.c **** 	CY_SET_XTND_REG8((void CYFAR *)CYREG_DSM0_SW0, 0x10u);
 147              		.loc 1 311 0
 148 001a 1023     		movs	r3, #16
 149 001c 064A     		ldr	r2, .L10+12
 150 001e 1370     		strb	r3, [r2]
 312:Generated_Source\PSoC5/cyfitter_cfg.c **** 	CY_SET_XTND_REG8((void CYFAR *)CYREG_BUS_SW0, 0x10u);
 151              		.loc 1 312 0
 152 0020 5832     		adds	r2, r2, #88
 153 0022 1370     		strb	r3, [r2]
 313:Generated_Source\PSoC5/cyfitter_cfg.c **** 	CY_SET_XTND_REG8((void CYFAR *)CYREG_PUMP_CR0, 0x44u);
 154              		.loc 1 313 0
 155 0024 4422     		movs	r2, #68
 156 0026 054B     		ldr	r3, .L10+16
 157 0028 1A70     		strb	r2, [r3]
 158 002a 7047     		bx	lr
 159              	.L11:
 160              		.align	2
 161              	.L10:
 162 002c CF010049 		.word	1224737231
 163 0030 6E580040 		.word	1073764462
 164 0034 FD510040 		.word	1073762813
 165 0038 005B0040 		.word	1073765120
 166 003c 76580040 		.word	1073764470
 167              		.cfi_endproc
 168              	.LFE6:
 169              		.size	AnalogSetDefault, .-AnalogSetDefault
 170              		.section	.text.CYMEMZERO,"ax",%progbits
 171              		.align	2
 172              		.thumb
 173              		.thumb_func
 174              		.type	CYMEMZERO, %function
 175              	CYMEMZERO:
 176              	.LFB0:
  78:Generated_Source\PSoC5/cyfitter_cfg.c **** 	(void)memset(s, 0, n);
 177              		.loc 1 78 0
 178              		.cfi_startproc
 179              		@ args = 0, pretend = 0, frame = 0
 180              		@ frame_needed = 0, uses_anonymous_args = 0
 181              	.LVL14:
 182 0000 08B5     		push	{r3, lr}
 183              		.cfi_def_cfa_offset 8
 184              		.cfi_offset 3, -8
 185              		.cfi_offset 14, -4
  79:Generated_Source\PSoC5/cyfitter_cfg.c **** }
 186              		.loc 1 79 0
 187 0002 0A46     		mov	r2, r1
 188 0004 0021     		movs	r1, #0
 189              	.LVL15:
 190 0006 FFF7FEFF 		bl	memset
 191              	.LVL16:
 192 000a 08BD     		pop	{r3, pc}
 193              		.cfi_endproc
 194              	.LFE0:
 195              		.size	CYMEMZERO, .-CYMEMZERO
ARM GAS  C:\Users\Lab\AppData\Local\Temp\ccpurAxS.s 			page 10


 196              		.section	.text.CYCONFIGCPY,"ax",%progbits
 197              		.align	2
 198              		.thumb
 199              		.thumb_func
 200              		.type	CYCONFIGCPY, %function
 201              	CYCONFIGCPY:
 202              	.LFB1:
  85:Generated_Source\PSoC5/cyfitter_cfg.c **** 	(void)memcpy(dest, src, n);
 203              		.loc 1 85 0
 204              		.cfi_startproc
 205              		@ args = 0, pretend = 0, frame = 0
 206              		@ frame_needed = 0, uses_anonymous_args = 0
 207              	.LVL17:
 208 0000 08B5     		push	{r3, lr}
 209              		.cfi_def_cfa_offset 8
 210              		.cfi_offset 3, -8
 211              		.cfi_offset 14, -4
  86:Generated_Source\PSoC5/cyfitter_cfg.c **** }
 212              		.loc 1 86 0
 213 0002 FFF7FEFF 		bl	memcpy
 214              	.LVL18:
 215 0006 08BD     		pop	{r3, pc}
 216              		.cfi_endproc
 217              	.LFE1:
 218              		.size	CYCONFIGCPY, .-CYCONFIGCPY
 219              		.section	.text.ClockSetup,"ax",%progbits
 220              		.align	2
 221              		.thumb
 222              		.thumb_func
 223              		.type	ClockSetup, %function
 224              	ClockSetup:
 225              	.LFB5:
 231:Generated_Source\PSoC5/cyfitter_cfg.c **** 	uint32 timeout;
 226              		.loc 1 231 0
 227              		.cfi_startproc
 228              		@ args = 0, pretend = 0, frame = 0
 229              		@ frame_needed = 0, uses_anonymous_args = 0
 230 0000 38B5     		push	{r3, r4, r5, lr}
 231              		.cfi_def_cfa_offset 16
 232              		.cfi_offset 3, -16
 233              		.cfi_offset 4, -12
 234              		.cfi_offset 5, -8
 235              		.cfi_offset 14, -4
 237:Generated_Source\PSoC5/cyfitter_cfg.c **** 	CY_SET_XTND_REG8((void CYFAR *)(CYREG_CLKDIST_DCFG0_CFG0 + 0x2u), 0x50u);
 236              		.loc 1 237 0
 237 0002 0024     		movs	r4, #0
 238 0004 324B     		ldr	r3, .L22
 239 0006 1C80     		strh	r4, [r3]	@ movhi
 238:Generated_Source\PSoC5/cyfitter_cfg.c **** 	CY_SET_XTND_REG16((void CYFAR *)(CYREG_CLKDIST_DCFG1_CFG0), 0x0033u);
 240              		.loc 1 238 0
 241 0008 5022     		movs	r2, #80
 242 000a 0233     		adds	r3, r3, #2
 243 000c 1A70     		strb	r2, [r3]
 239:Generated_Source\PSoC5/cyfitter_cfg.c **** 	CY_SET_XTND_REG8((void CYFAR *)(CYREG_CLKDIST_DCFG1_CFG0 + 0x2u), 0x18u);
 244              		.loc 1 239 0
 245 000e 3322     		movs	r2, #51
 246 0010 0233     		adds	r3, r3, #2
ARM GAS  C:\Users\Lab\AppData\Local\Temp\ccpurAxS.s 			page 11


 247 0012 1A80     		strh	r2, [r3]	@ movhi
 240:Generated_Source\PSoC5/cyfitter_cfg.c **** 	CY_SET_XTND_REG16((void CYFAR *)(CYREG_CLKDIST_DCFG2_CFG0), 0x0743u);
 248              		.loc 1 240 0
 249 0014 1823     		movs	r3, #24
 250 0016 2F4A     		ldr	r2, .L22+4
 251 0018 1370     		strb	r3, [r2]
 241:Generated_Source\PSoC5/cyfitter_cfg.c **** 	CY_SET_XTND_REG8((void CYFAR *)(CYREG_CLKDIST_DCFG2_CFG0 + 0x2u), 0x18u);
 252              		.loc 1 241 0
 253 001a 40F24371 		movw	r1, #1859
 254 001e 0232     		adds	r2, r2, #2
 255 0020 1180     		strh	r1, [r2]	@ movhi
 242:Generated_Source\PSoC5/cyfitter_cfg.c **** 
 256              		.loc 1 242 0
 257 0022 0232     		adds	r2, r2, #2
 258 0024 1370     		strb	r3, [r2]
 245:Generated_Source\PSoC5/cyfitter_cfg.c **** 
 259              		.loc 1 245 0
 260 0026 0422     		movs	r2, #4
 261 0028 2B49     		ldr	r1, .L22+8
 262 002a 2C48     		ldr	r0, .L22+12
 263 002c FFF7FEFF 		bl	CYCONFIGCPY
 264              	.LVL19:
 248:Generated_Source\PSoC5/cyfitter_cfg.c **** 	CY_SET_XTND_REG8((void CYFAR *)(CYREG_CLKDIST_CR), 0x08u);
 265              		.loc 1 248 0
 266 0030 0222     		movs	r2, #2
 267 0032 2B4B     		ldr	r3, .L22+16
 268 0034 1A70     		strb	r2, [r3]
 249:Generated_Source\PSoC5/cyfitter_cfg.c **** 
 269              		.loc 1 249 0
 270 0036 0822     		movs	r2, #8
 271 0038 4FF04023 		mov	r3, #1073758208
 272 003c 1A70     		strb	r2, [r3]
 252:Generated_Source\PSoC5/cyfitter_cfg.c **** 	CY_SET_XTND_REG8((void CYFAR *)(CYREG_IMO_TR1), (CY_GET_XTND_REG8((void CYFAR *)CYREG_FLSHID_CUST_
 273              		.loc 1 252 0
 274 003e 0321     		movs	r1, #3
 275 0040 03F50073 		add	r3, r3, #512
 276 0044 1970     		strb	r1, [r3]
 253:Generated_Source\PSoC5/cyfitter_cfg.c **** 
 277              		.loc 1 253 0
 278 0046 274B     		ldr	r3, .L22+20
 279 0048 1B78     		ldrb	r3, [r3]	@ zero_extendqisi2
 280 004a DBB2     		uxtb	r3, r3
 281 004c 2649     		ldr	r1, .L22+24
 282 004e 0B70     		strb	r3, [r1]
 256:Generated_Source\PSoC5/cyfitter_cfg.c **** 	CY_SET_XTND_REG16((void CYFAR *)(CYREG_FASTCLK_PLL_CFG0), 0x1251u);
 283              		.loc 1 256 0
 284 0050 264B     		ldr	r3, .L22+28
 285 0052 1A80     		strh	r2, [r3]	@ movhi
 257:Generated_Source\PSoC5/cyfitter_cfg.c **** 	/* Wait up to 250us for the PLL to lock */
 286              		.loc 1 257 0
 287 0054 41F25122 		movw	r2, #4689
 288 0058 023B     		subs	r3, r3, #2
 289 005a 1A80     		strh	r2, [r3]	@ movhi
 290              	.LVL20:
 260:Generated_Source\PSoC5/cyfitter_cfg.c **** 	{ 
 291              		.loc 1 260 0
 292 005c 1925     		movs	r5, #25
ARM GAS  C:\Users\Lab\AppData\Local\Temp\ccpurAxS.s 			page 12


 293 005e 0CE0     		b	.L17
 294              	.LVL21:
 295              	.L19:
 262:Generated_Source\PSoC5/cyfitter_cfg.c **** 		CyDelayCycles(10u * 48u); /* Delay 10us based on 48MHz clock */
 296              		.loc 1 262 0 discriminator 4
 297 0060 234B     		ldr	r3, .L22+32
 298 0062 1B78     		ldrb	r3, [r3]	@ zero_extendqisi2
 299 0064 03F00103 		and	r3, r3, #1
 300 0068 43EA4404 		orr	r4, r3, r4, lsl #1
 301              	.LVL22:
 302 006c 04F00304 		and	r4, r4, #3
 303              	.LVL23:
 263:Generated_Source\PSoC5/cyfitter_cfg.c **** 	}
 304              		.loc 1 263 0 discriminator 4
 305 0070 4FF4F070 		mov	r0, #480
 306 0074 FFF7FEFF 		bl	CyDelayCycles
 307              	.LVL24:
 260:Generated_Source\PSoC5/cyfitter_cfg.c **** 	{ 
 308              		.loc 1 260 0 discriminator 4
 309 0078 013D     		subs	r5, r5, #1
 310              	.LVL25:
 311              	.L17:
 260:Generated_Source\PSoC5/cyfitter_cfg.c **** 	{ 
 312              		.loc 1 260 0 is_stmt 0 discriminator 1
 313 007a 0DB1     		cbz	r5, .L18
 260:Generated_Source\PSoC5/cyfitter_cfg.c **** 	{ 
 314              		.loc 1 260 0 discriminator 3
 315 007c 032C     		cmp	r4, #3
 316 007e EFD1     		bne	.L19
 317              	.L18:
 266:Generated_Source\PSoC5/cyfitter_cfg.c **** 	{
 318              		.loc 1 266 0 is_stmt 1
 319 0080 15B9     		cbnz	r5, .L20
 268:Generated_Source\PSoC5/cyfitter_cfg.c **** 	}
 320              		.loc 1 268 0
 321 0082 0320     		movs	r0, #3
 322 0084 FFF7FEFF 		bl	CyClockStartupError
 323              	.LVL26:
 324              	.L20:
 272:Generated_Source\PSoC5/cyfitter_cfg.c **** 	CY_SET_XTND_REG8((void CYFAR *)(CYREG_CLKDIST_MSTR0), 0x07u);
 325              		.loc 1 272 0
 326 0088 1A4B     		ldr	r3, .L22+36
 327 008a 4FF48072 		mov	r2, #256
 328 008e 1A80     		strh	r2, [r3]	@ movhi
 273:Generated_Source\PSoC5/cyfitter_cfg.c **** 	CY_SET_XTND_REG8((void CYFAR *)(CYREG_CLKDIST_BCFG0), 0x00u);
 329              		.loc 1 273 0
 330 0090 0722     		movs	r2, #7
 331 0092 1A70     		strb	r2, [r3]
 274:Generated_Source\PSoC5/cyfitter_cfg.c **** 	CY_SET_XTND_REG8((void CYFAR *)(CYREG_CLKDIST_BCFG2), 0x48u);
 332              		.loc 1 274 0
 333 0094 0022     		movs	r2, #0
 334 0096 1849     		ldr	r1, .L22+40
 335 0098 0A70     		strb	r2, [r1]
 275:Generated_Source\PSoC5/cyfitter_cfg.c **** 	CY_SET_XTND_REG8((void CYFAR *)(CYREG_CLKDIST_MSTR0), 0x00u);
 336              		.loc 1 275 0
 337 009a 4820     		movs	r0, #72
 338 009c 0231     		adds	r1, r1, #2
ARM GAS  C:\Users\Lab\AppData\Local\Temp\ccpurAxS.s 			page 13


 339 009e 0870     		strb	r0, [r1]
 276:Generated_Source\PSoC5/cyfitter_cfg.c **** 	CY_SET_XTND_REG8((void CYFAR *)(CYREG_CLKDIST_LD), 0x02u);
 340              		.loc 1 276 0
 341 00a0 1A70     		strb	r2, [r3]
 277:Generated_Source\PSoC5/cyfitter_cfg.c **** 	CY_SET_XTND_REG8((void CYFAR *)(CYREG_CLKDIST_DLY1), 0x04u);
 342              		.loc 1 277 0
 343 00a2 0222     		movs	r2, #2
 344 00a4 033B     		subs	r3, r3, #3
 345 00a6 1A70     		strb	r2, [r3]
 278:Generated_Source\PSoC5/cyfitter_cfg.c **** 
 346              		.loc 1 278 0
 347 00a8 0422     		movs	r2, #4
 348 00aa 0A33     		adds	r3, r3, #10
 349 00ac 1A70     		strb	r2, [r3]
 280:Generated_Source\PSoC5/cyfitter_cfg.c **** 	CY_SET_XTND_REG8((void CYFAR *)(CYREG_PM_ACT_CFG1), ((CY_GET_XTND_REG8((void CYFAR *)CYREG_PM_ACT_
 350              		.loc 1 280 0
 351 00ae 134A     		ldr	r2, .L22+44
 352 00b0 1378     		ldrb	r3, [r2]	@ zero_extendqisi2
 353 00b2 43F00703 		orr	r3, r3, #7
 354 00b6 1370     		strb	r3, [r2]
 281:Generated_Source\PSoC5/cyfitter_cfg.c **** 	CY_SET_XTND_REG8((void CYFAR *)(CYREG_PM_ACT_CFG0), ((CY_GET_XTND_REG8((void CYFAR *)CYREG_PM_ACT_
 355              		.loc 1 281 0
 356 00b8 013A     		subs	r2, r2, #1
 357 00ba 1378     		ldrb	r3, [r2]	@ zero_extendqisi2
 358 00bc 43F00103 		orr	r3, r3, #1
 359 00c0 1370     		strb	r3, [r2]
 282:Generated_Source\PSoC5/cyfitter_cfg.c **** }
 360              		.loc 1 282 0
 361 00c2 013A     		subs	r2, r2, #1
 362 00c4 1378     		ldrb	r3, [r2]	@ zero_extendqisi2
 363 00c6 43F08003 		orr	r3, r3, #128
 364 00ca 1370     		strb	r3, [r2]
 365 00cc 38BD     		pop	{r3, r4, r5, pc}
 366              	.LVL27:
 367              	.L23:
 368 00ce 00BF     		.align	2
 369              	.L22:
 370 00d0 80400040 		.word	1073758336
 371 00d4 86400040 		.word	1073758342
 372 00d8 1C050048 		.word	1207960860
 373 00dc 00410040 		.word	1073758464
 374 00e0 00430040 		.word	1073758976
 375 00e4 08010049 		.word	1224737032
 376 00e8 A1460040 		.word	1073759905
 377 00ec 22420040 		.word	1073758754
 378 00f0 25420040 		.word	1073758757
 379 00f4 04400040 		.word	1073758212
 380 00f8 06400040 		.word	1073758214
 381 00fc A2430040 		.word	1073759138
 382              		.cfi_endproc
 383              	.LFE5:
 384              		.size	ClockSetup, .-ClockSetup
 385              		.section	.text.SetAnalogRoutingPumps,"ax",%progbits
 386              		.align	2
 387              		.global	SetAnalogRoutingPumps
 388              		.thumb
 389              		.thumb_func
ARM GAS  C:\Users\Lab\AppData\Local\Temp\ccpurAxS.s 			page 14


 390              		.type	SetAnalogRoutingPumps, %function
 391              	SetAnalogRoutingPumps:
 392              	.LFB7:
 314:Generated_Source\PSoC5/cyfitter_cfg.c **** }
 315:Generated_Source\PSoC5/cyfitter_cfg.c **** 
 316:Generated_Source\PSoC5/cyfitter_cfg.c **** 
 317:Generated_Source\PSoC5/cyfitter_cfg.c **** /*******************************************************************************
 318:Generated_Source\PSoC5/cyfitter_cfg.c **** * Function Name: SetAnalogRoutingPumps
 319:Generated_Source\PSoC5/cyfitter_cfg.c **** ********************************************************************************
 320:Generated_Source\PSoC5/cyfitter_cfg.c **** *
 321:Generated_Source\PSoC5/cyfitter_cfg.c **** * Summary:
 322:Generated_Source\PSoC5/cyfitter_cfg.c **** * Enables or disables the analog pumps feeding analog routing switches.
 323:Generated_Source\PSoC5/cyfitter_cfg.c **** * Intended to be called at startup, based on the Vdda system configuration;
 324:Generated_Source\PSoC5/cyfitter_cfg.c **** * may be called during operation when the user informs us that the Vdda voltage
 325:Generated_Source\PSoC5/cyfitter_cfg.c **** * crossed the pump threshold.
 326:Generated_Source\PSoC5/cyfitter_cfg.c **** *
 327:Generated_Source\PSoC5/cyfitter_cfg.c **** * Parameters:
 328:Generated_Source\PSoC5/cyfitter_cfg.c **** *  enabled - 1 to enable the pumps, 0 to disable the pumps
 329:Generated_Source\PSoC5/cyfitter_cfg.c **** *
 330:Generated_Source\PSoC5/cyfitter_cfg.c **** * Return:
 331:Generated_Source\PSoC5/cyfitter_cfg.c **** *  void
 332:Generated_Source\PSoC5/cyfitter_cfg.c **** *
 333:Generated_Source\PSoC5/cyfitter_cfg.c **** *******************************************************************************/
 334:Generated_Source\PSoC5/cyfitter_cfg.c **** void SetAnalogRoutingPumps(uint8 enabled)
 335:Generated_Source\PSoC5/cyfitter_cfg.c **** {
 393              		.loc 1 335 0
 394              		.cfi_startproc
 395              		@ args = 0, pretend = 0, frame = 0
 396              		@ frame_needed = 0, uses_anonymous_args = 0
 397              		@ link register save eliminated.
 398              	.LVL28:
 336:Generated_Source\PSoC5/cyfitter_cfg.c **** 	uint8 regValue = CY_GET_XTND_REG8((void CYFAR *)CYREG_PUMP_CR0);
 399              		.loc 1 336 0
 400 0000 054B     		ldr	r3, .L27
 401 0002 1B78     		ldrb	r3, [r3]	@ zero_extendqisi2
 402 0004 DBB2     		uxtb	r3, r3
 403              	.LVL29:
 337:Generated_Source\PSoC5/cyfitter_cfg.c **** 	if (enabled != 0u)
 404              		.loc 1 337 0
 405 0006 10B1     		cbz	r0, .L25
 338:Generated_Source\PSoC5/cyfitter_cfg.c **** 	{
 339:Generated_Source\PSoC5/cyfitter_cfg.c **** 		regValue |= 0x22u;
 406              		.loc 1 339 0
 407 0008 43F02203 		orr	r3, r3, #34
 408              	.LVL30:
 409 000c 01E0     		b	.L26
 410              	.L25:
 340:Generated_Source\PSoC5/cyfitter_cfg.c **** 	}
 341:Generated_Source\PSoC5/cyfitter_cfg.c **** 	else
 342:Generated_Source\PSoC5/cyfitter_cfg.c **** 	{
 343:Generated_Source\PSoC5/cyfitter_cfg.c **** 		regValue &= (uint8)~0x22u;
 411              		.loc 1 343 0
 412 000e 03F0DD03 		and	r3, r3, #221
 413              	.LVL31:
 414              	.L26:
 344:Generated_Source\PSoC5/cyfitter_cfg.c **** 	}
 345:Generated_Source\PSoC5/cyfitter_cfg.c **** 	CY_SET_XTND_REG8((void CYFAR *)CYREG_PUMP_CR0, regValue);
ARM GAS  C:\Users\Lab\AppData\Local\Temp\ccpurAxS.s 			page 15


 415              		.loc 1 345 0
 416 0012 014A     		ldr	r2, .L27
 417 0014 1370     		strb	r3, [r2]
 418 0016 7047     		bx	lr
 419              	.L28:
 420              		.align	2
 421              	.L27:
 422 0018 76580040 		.word	1073764470
 423              		.cfi_endproc
 424              	.LFE7:
 425              		.size	SetAnalogRoutingPumps, .-SetAnalogRoutingPumps
 426              		.section	.text.ADC_DelSig_1_AMux_Set,"ax",%progbits
 427              		.align	2
 428              		.global	ADC_DelSig_1_AMux_Set
 429              		.thumb
 430              		.thumb_func
 431              		.type	ADC_DelSig_1_AMux_Set, %function
 432              	ADC_DelSig_1_AMux_Set:
 433              	.LFB8:
 346:Generated_Source\PSoC5/cyfitter_cfg.c **** }
 347:Generated_Source\PSoC5/cyfitter_cfg.c **** 
 348:Generated_Source\PSoC5/cyfitter_cfg.c **** 
 349:Generated_Source\PSoC5/cyfitter_cfg.c **** #define CY_AMUX_UNUSED CYREG_BOOST_SR
 350:Generated_Source\PSoC5/cyfitter_cfg.c **** /* This is an implementation detail of the AMux. Code that depends on it may be
 351:Generated_Source\PSoC5/cyfitter_cfg.c ****    incompatible with other versions of PSoC Creator. */
 352:Generated_Source\PSoC5/cyfitter_cfg.c **** uint8 CYXDATA * const CYCODE ADC_DelSig_1_AMux__addrTable[2] = {
 353:Generated_Source\PSoC5/cyfitter_cfg.c **** 	(uint8 CYXDATA *)CYREG_DSM0_SW3, 
 354:Generated_Source\PSoC5/cyfitter_cfg.c **** 	(uint8 CYXDATA *)CY_AMUX_UNUSED, 
 355:Generated_Source\PSoC5/cyfitter_cfg.c **** };
 356:Generated_Source\PSoC5/cyfitter_cfg.c **** 
 357:Generated_Source\PSoC5/cyfitter_cfg.c **** /* This is an implementation detail of the AMux. Code that depends on it may be
 358:Generated_Source\PSoC5/cyfitter_cfg.c ****    incompatible with other versions of PSoC Creator. */
 359:Generated_Source\PSoC5/cyfitter_cfg.c **** const uint8 CYCODE ADC_DelSig_1_AMux__maskTable[2] = {
 360:Generated_Source\PSoC5/cyfitter_cfg.c **** 	0x40u, 
 361:Generated_Source\PSoC5/cyfitter_cfg.c **** 	0x00u, 
 362:Generated_Source\PSoC5/cyfitter_cfg.c **** };
 363:Generated_Source\PSoC5/cyfitter_cfg.c **** 
 364:Generated_Source\PSoC5/cyfitter_cfg.c **** /*******************************************************************************
 365:Generated_Source\PSoC5/cyfitter_cfg.c **** * Function Name: ADC_DelSig_1_AMux_Set
 366:Generated_Source\PSoC5/cyfitter_cfg.c **** ********************************************************************************
 367:Generated_Source\PSoC5/cyfitter_cfg.c **** * Summary:
 368:Generated_Source\PSoC5/cyfitter_cfg.c **** *  This function is used to set a particular channel as active on the AMux.
 369:Generated_Source\PSoC5/cyfitter_cfg.c **** *
 370:Generated_Source\PSoC5/cyfitter_cfg.c **** * Parameters:  
 371:Generated_Source\PSoC5/cyfitter_cfg.c **** *   channel - The mux channel input to set as active
 372:Generated_Source\PSoC5/cyfitter_cfg.c **** *
 373:Generated_Source\PSoC5/cyfitter_cfg.c **** * Return:
 374:Generated_Source\PSoC5/cyfitter_cfg.c **** *   void
 375:Generated_Source\PSoC5/cyfitter_cfg.c **** *
 376:Generated_Source\PSoC5/cyfitter_cfg.c **** *******************************************************************************/
 377:Generated_Source\PSoC5/cyfitter_cfg.c **** void ADC_DelSig_1_AMux_Set(uint8 channel)
 378:Generated_Source\PSoC5/cyfitter_cfg.c **** {
 434              		.loc 1 378 0
 435              		.cfi_startproc
 436              		@ args = 0, pretend = 0, frame = 0
 437              		@ frame_needed = 0, uses_anonymous_args = 0
 438              		@ link register save eliminated.
ARM GAS  C:\Users\Lab\AppData\Local\Temp\ccpurAxS.s 			page 16


 439              	.LVL32:
 379:Generated_Source\PSoC5/cyfitter_cfg.c **** 	if (channel < 2)
 440              		.loc 1 379 0
 441 0000 0128     		cmp	r0, #1
 442 0002 07D8     		bhi	.L29
 380:Generated_Source\PSoC5/cyfitter_cfg.c **** 	{
 381:Generated_Source\PSoC5/cyfitter_cfg.c **** 		*ADC_DelSig_1_AMux__addrTable[channel] |= ADC_DelSig_1_AMux__maskTable[channel];
 443              		.loc 1 381 0
 444 0004 044B     		ldr	r3, .L31
 445 0006 53F82020 		ldr	r2, [r3, r0, lsl #2]
 446 000a 1844     		add	r0, r0, r3
 447              	.LVL33:
 448 000c 017A     		ldrb	r1, [r0, #8]	@ zero_extendqisi2
 449 000e 1378     		ldrb	r3, [r2]	@ zero_extendqisi2
 450 0010 0B43     		orrs	r3, r3, r1
 451 0012 1370     		strb	r3, [r2]
 452              	.L29:
 453 0014 7047     		bx	lr
 454              	.L32:
 455 0016 00BF     		.align	2
 456              	.L31:
 457 0018 00000000 		.word	.LANCHOR0
 458              		.cfi_endproc
 459              	.LFE8:
 460              		.size	ADC_DelSig_1_AMux_Set, .-ADC_DelSig_1_AMux_Set
 461              		.section	.text.ADC_DelSig_1_AMux_Unset,"ax",%progbits
 462              		.align	2
 463              		.global	ADC_DelSig_1_AMux_Unset
 464              		.thumb
 465              		.thumb_func
 466              		.type	ADC_DelSig_1_AMux_Unset, %function
 467              	ADC_DelSig_1_AMux_Unset:
 468              	.LFB9:
 382:Generated_Source\PSoC5/cyfitter_cfg.c **** 	}
 383:Generated_Source\PSoC5/cyfitter_cfg.c **** }
 384:Generated_Source\PSoC5/cyfitter_cfg.c **** 
 385:Generated_Source\PSoC5/cyfitter_cfg.c **** /*******************************************************************************
 386:Generated_Source\PSoC5/cyfitter_cfg.c **** * Function Name: ADC_DelSig_1_AMux_Unset
 387:Generated_Source\PSoC5/cyfitter_cfg.c **** ********************************************************************************
 388:Generated_Source\PSoC5/cyfitter_cfg.c **** * Summary:
 389:Generated_Source\PSoC5/cyfitter_cfg.c **** *  This function is used to clear a particular channel from being active on the
 390:Generated_Source\PSoC5/cyfitter_cfg.c **** *  AMux.
 391:Generated_Source\PSoC5/cyfitter_cfg.c **** *
 392:Generated_Source\PSoC5/cyfitter_cfg.c **** * Parameters:  
 393:Generated_Source\PSoC5/cyfitter_cfg.c **** *   channel - The mux channel input to mark inactive
 394:Generated_Source\PSoC5/cyfitter_cfg.c **** *
 395:Generated_Source\PSoC5/cyfitter_cfg.c **** * Return:
 396:Generated_Source\PSoC5/cyfitter_cfg.c **** *   void
 397:Generated_Source\PSoC5/cyfitter_cfg.c **** *
 398:Generated_Source\PSoC5/cyfitter_cfg.c **** *******************************************************************************/
 399:Generated_Source\PSoC5/cyfitter_cfg.c **** void ADC_DelSig_1_AMux_Unset(uint8 channel)
 400:Generated_Source\PSoC5/cyfitter_cfg.c **** {
 469              		.loc 1 400 0
 470              		.cfi_startproc
 471              		@ args = 0, pretend = 0, frame = 0
 472              		@ frame_needed = 0, uses_anonymous_args = 0
 473              		@ link register save eliminated.
ARM GAS  C:\Users\Lab\AppData\Local\Temp\ccpurAxS.s 			page 17


 474              	.LVL34:
 401:Generated_Source\PSoC5/cyfitter_cfg.c **** 	if (channel < 2)
 475              		.loc 1 401 0
 476 0000 0128     		cmp	r0, #1
 477 0002 08D8     		bhi	.L33
 402:Generated_Source\PSoC5/cyfitter_cfg.c **** 	{
 403:Generated_Source\PSoC5/cyfitter_cfg.c **** 		*ADC_DelSig_1_AMux__addrTable[channel] &= (uint8)~ADC_DelSig_1_AMux__maskTable[channel];
 478              		.loc 1 403 0
 479 0004 044B     		ldr	r3, .L35
 480 0006 53F82020 		ldr	r2, [r3, r0, lsl #2]
 481 000a 1844     		add	r0, r0, r3
 482              	.LVL35:
 483 000c 017A     		ldrb	r1, [r0, #8]	@ zero_extendqisi2
 484 000e 1378     		ldrb	r3, [r2]	@ zero_extendqisi2
 485 0010 23EA0103 		bic	r3, r3, r1
 486 0014 1370     		strb	r3, [r2]
 487              	.L33:
 488 0016 7047     		bx	lr
 489              	.L36:
 490              		.align	2
 491              	.L35:
 492 0018 00000000 		.word	.LANCHOR0
 493              		.cfi_endproc
 494              	.LFE9:
 495              		.size	ADC_DelSig_1_AMux_Unset, .-ADC_DelSig_1_AMux_Unset
 496              		.section	.text.cyfitter_cfg,"ax",%progbits
 497              		.align	2
 498              		.global	cyfitter_cfg
 499              		.thumb
 500              		.thumb_func
 501              		.type	cyfitter_cfg, %function
 502              	cyfitter_cfg:
 503              	.LFB10:
 404:Generated_Source\PSoC5/cyfitter_cfg.c **** 	}
 405:Generated_Source\PSoC5/cyfitter_cfg.c **** }
 406:Generated_Source\PSoC5/cyfitter_cfg.c **** 
 407:Generated_Source\PSoC5/cyfitter_cfg.c **** 
 408:Generated_Source\PSoC5/cyfitter_cfg.c **** 
 409:Generated_Source\PSoC5/cyfitter_cfg.c **** /*******************************************************************************
 410:Generated_Source\PSoC5/cyfitter_cfg.c **** * Function Name: cyfitter_cfg
 411:Generated_Source\PSoC5/cyfitter_cfg.c **** ********************************************************************************
 412:Generated_Source\PSoC5/cyfitter_cfg.c **** * Summary:
 413:Generated_Source\PSoC5/cyfitter_cfg.c **** *  This function is called by the start-up code for the selected device. It
 414:Generated_Source\PSoC5/cyfitter_cfg.c **** *  performs all of the necessary device configuration based on the design
 415:Generated_Source\PSoC5/cyfitter_cfg.c **** *  settings.  This includes settings from the Design Wide Resources (DWR) such
 416:Generated_Source\PSoC5/cyfitter_cfg.c **** *  as Clocks and Pins as well as any component configuration that is necessary.
 417:Generated_Source\PSoC5/cyfitter_cfg.c **** *
 418:Generated_Source\PSoC5/cyfitter_cfg.c **** * Parameters:
 419:Generated_Source\PSoC5/cyfitter_cfg.c **** *   void
 420:Generated_Source\PSoC5/cyfitter_cfg.c **** *
 421:Generated_Source\PSoC5/cyfitter_cfg.c **** * Return:
 422:Generated_Source\PSoC5/cyfitter_cfg.c **** *   void
 423:Generated_Source\PSoC5/cyfitter_cfg.c **** *
 424:Generated_Source\PSoC5/cyfitter_cfg.c **** *******************************************************************************/
 425:Generated_Source\PSoC5/cyfitter_cfg.c **** 
 426:Generated_Source\PSoC5/cyfitter_cfg.c **** void cyfitter_cfg(void)
 427:Generated_Source\PSoC5/cyfitter_cfg.c **** {
ARM GAS  C:\Users\Lab\AppData\Local\Temp\ccpurAxS.s 			page 18


 504              		.loc 1 427 0
 505              		.cfi_startproc
 506              		@ args = 0, pretend = 0, frame = 0
 507              		@ frame_needed = 0, uses_anonymous_args = 0
 508 0000 38B5     		push	{r3, r4, r5, lr}
 509              		.cfi_def_cfa_offset 16
 510              		.cfi_offset 3, -16
 511              		.cfi_offset 4, -12
 512              		.cfi_offset 5, -8
 513              		.cfi_offset 14, -4
 428:Generated_Source\PSoC5/cyfitter_cfg.c **** #ifdef CYGlobalIntDisable
 429:Generated_Source\PSoC5/cyfitter_cfg.c **** 	/* Disable interrupts by default. Let user enable if/when they want. */
 430:Generated_Source\PSoC5/cyfitter_cfg.c **** 	CYGlobalIntDisable
 514              		.loc 1 430 0
 515              		.syntax unified
 516              	@ 430 "Generated_Source\PSoC5\cyfitter_cfg.c" 1
 517 0002 72B6     		CPSID   i
 518              	@ 0 "" 2
 431:Generated_Source\PSoC5/cyfitter_cfg.c **** #endif
 432:Generated_Source\PSoC5/cyfitter_cfg.c **** 
 433:Generated_Source\PSoC5/cyfitter_cfg.c **** 	/* Enable/Disable Debug functionality based on settings from System DWR */
 434:Generated_Source\PSoC5/cyfitter_cfg.c **** 	CY_SET_XTND_REG8((void CYFAR *)CYREG_MLOGIC_DEBUG, (CY_GET_XTND_REG8((void CYFAR *)CYREG_MLOGIC_DE
 519              		.loc 1 434 0
 520              		.thumb
 521              		.syntax unified
 522 0004 364A     		ldr	r2, .L43
 523 0006 1378     		ldrb	r3, [r2]	@ zero_extendqisi2
 524 0008 43F00403 		orr	r3, r3, #4
 525 000c 1370     		strb	r3, [r2]
 526              	.LVL36:
 527              	.LBB3:
 435:Generated_Source\PSoC5/cyfitter_cfg.c **** 
 436:Generated_Source\PSoC5/cyfitter_cfg.c **** 	{
 437:Generated_Source\PSoC5/cyfitter_cfg.c **** 
 438:Generated_Source\PSoC5/cyfitter_cfg.c **** 		CYPACKED typedef struct {
 439:Generated_Source\PSoC5/cyfitter_cfg.c **** 			void CYFAR *address;
 440:Generated_Source\PSoC5/cyfitter_cfg.c **** 			uint16 size;
 441:Generated_Source\PSoC5/cyfitter_cfg.c **** 		} CYPACKED_ATTR cfg_memset_t;
 442:Generated_Source\PSoC5/cyfitter_cfg.c **** 
 443:Generated_Source\PSoC5/cyfitter_cfg.c **** 
 444:Generated_Source\PSoC5/cyfitter_cfg.c **** 		CYPACKED typedef struct {
 445:Generated_Source\PSoC5/cyfitter_cfg.c **** 			void CYFAR *dest;
 446:Generated_Source\PSoC5/cyfitter_cfg.c **** 			const void CYFAR *src;
 447:Generated_Source\PSoC5/cyfitter_cfg.c **** 			uint16 size;
 448:Generated_Source\PSoC5/cyfitter_cfg.c **** 		} CYPACKED_ATTR cfg_memcpy_t;
 449:Generated_Source\PSoC5/cyfitter_cfg.c **** 
 450:Generated_Source\PSoC5/cyfitter_cfg.c **** 		static const cfg_memset_t CYCODE cfg_memset_list[] = {
 451:Generated_Source\PSoC5/cyfitter_cfg.c **** 			/* address, size */
 452:Generated_Source\PSoC5/cyfitter_cfg.c **** 			{(void CYFAR *)(CYREG_PRT0_DR), 16u},
 453:Generated_Source\PSoC5/cyfitter_cfg.c **** 			{(void CYFAR *)(CYREG_PRT3_DR), 64u},
 454:Generated_Source\PSoC5/cyfitter_cfg.c **** 			{(void CYFAR *)(CYDEV_UCFG_B0_P0_U0_BASE), 1536u},
 455:Generated_Source\PSoC5/cyfitter_cfg.c **** 			{(void CYFAR *)(CYDEV_UCFG_B0_P3_U1_BASE), 2432u},
 456:Generated_Source\PSoC5/cyfitter_cfg.c **** 			{(void CYFAR *)(CYDEV_UCFG_B1_P2_U0_BASE), 2048u},
 457:Generated_Source\PSoC5/cyfitter_cfg.c **** 			{(void CYFAR *)(CYDEV_UCFG_DSI0_BASE), 2560u},
 458:Generated_Source\PSoC5/cyfitter_cfg.c **** 			{(void CYFAR *)(CYDEV_UCFG_DSI12_BASE), 512u},
 459:Generated_Source\PSoC5/cyfitter_cfg.c **** 			{(void CYFAR *)(CYREG_BCTL0_MDCLK_EN), 32u},
 460:Generated_Source\PSoC5/cyfitter_cfg.c **** 		};
ARM GAS  C:\Users\Lab\AppData\Local\Temp\ccpurAxS.s 			page 19


 461:Generated_Source\PSoC5/cyfitter_cfg.c **** 
 462:Generated_Source\PSoC5/cyfitter_cfg.c **** 		static const cfg_memcpy_t CYCODE cfg_memcpy_list [] = {
 463:Generated_Source\PSoC5/cyfitter_cfg.c **** 			/* dest, src, size */
 464:Generated_Source\PSoC5/cyfitter_cfg.c **** 			{(void CYFAR *)(CYDEV_UCFG_B0_P3_U0_BASE), BS_UDB_1_2_1_CONFIG_VAL, 128u},
 465:Generated_Source\PSoC5/cyfitter_cfg.c **** 		};
 466:Generated_Source\PSoC5/cyfitter_cfg.c **** 
 467:Generated_Source\PSoC5/cyfitter_cfg.c **** 		uint8 CYDATA i;
 468:Generated_Source\PSoC5/cyfitter_cfg.c **** 
 469:Generated_Source\PSoC5/cyfitter_cfg.c **** 		/* Zero out critical memory blocks before beginning configuration */
 470:Generated_Source\PSoC5/cyfitter_cfg.c **** 		for (i = 0u; i < (sizeof(cfg_memset_list)/sizeof(cfg_memset_list[0])); i++)
 528              		.loc 1 470 0
 529 000e 0024     		movs	r4, #0
 530 0010 0BE0     		b	.L38
 531              	.LVL37:
 532              	.L39:
 533              	.LBB4:
 471:Generated_Source\PSoC5/cyfitter_cfg.c **** 		{
 472:Generated_Source\PSoC5/cyfitter_cfg.c **** 			const cfg_memset_t CYCODE * CYDATA ms = &cfg_memset_list[i];
 473:Generated_Source\PSoC5/cyfitter_cfg.c **** 			CYMEMZERO(ms->address, (size_t)(uint32)(ms->size));
 534              		.loc 1 473 0 discriminator 3
 535 0012 3448     		ldr	r0, .L43+4
 536 0014 6300     		lsls	r3, r4, #1
 537 0016 1A19     		adds	r2, r3, r4
 538 0018 5100     		lsls	r1, r2, #1
 539 001a 0144     		add	r1, r1, r0
 540 001c 0A46     		mov	r2, r1
 541 001e 098A     		ldrh	r1, [r1, #16]
 542 0020 D068     		ldr	r0, [r2, #12]	@ unaligned
 543 0022 FFF7FEFF 		bl	CYMEMZERO
 544              	.LVL38:
 545              	.LBE4:
 470:Generated_Source\PSoC5/cyfitter_cfg.c **** 		{
 546              		.loc 1 470 0 discriminator 3
 547 0026 0134     		adds	r4, r4, #1
 548              	.LVL39:
 549 0028 E4B2     		uxtb	r4, r4
 550              	.LVL40:
 551              	.L38:
 470:Generated_Source\PSoC5/cyfitter_cfg.c **** 		{
 552              		.loc 1 470 0 is_stmt 0 discriminator 1
 553 002a 072C     		cmp	r4, #7
 554 002c F1D9     		bls	.L39
 555 002e 0024     		movs	r4, #0
 556              	.LVL41:
 557 0030 0BE0     		b	.L40
 558              	.LVL42:
 559              	.L41:
 560              	.LBB5:
 474:Generated_Source\PSoC5/cyfitter_cfg.c **** 		}
 475:Generated_Source\PSoC5/cyfitter_cfg.c **** 
 476:Generated_Source\PSoC5/cyfitter_cfg.c **** 		/* Copy device configuration data into registers */
 477:Generated_Source\PSoC5/cyfitter_cfg.c **** 		for (i = 0u; i < (sizeof(cfg_memcpy_list)/sizeof(cfg_memcpy_list[0])); i++)
 478:Generated_Source\PSoC5/cyfitter_cfg.c **** 		{
 479:Generated_Source\PSoC5/cyfitter_cfg.c **** 			const cfg_memcpy_t CYCODE * CYDATA mc = &cfg_memcpy_list[i];
 480:Generated_Source\PSoC5/cyfitter_cfg.c **** 			void * CYDATA destPtr = mc->dest;
 561              		.loc 1 480 0 is_stmt 1 discriminator 3
 562 0032 2C49     		ldr	r1, .L43+4
ARM GAS  C:\Users\Lab\AppData\Local\Temp\ccpurAxS.s 			page 20


 563 0034 A300     		lsls	r3, r4, #2
 564 0036 1819     		adds	r0, r3, r4
 565 0038 4200     		lsls	r2, r0, #1
 566 003a 8818     		adds	r0, r1, r2
 567              	.LVL43:
 481:Generated_Source\PSoC5/cyfitter_cfg.c **** 			const void * CYDATA srcPtr = mc->src;
 482:Generated_Source\PSoC5/cyfitter_cfg.c **** 			uint16 CYDATA numBytes = mc->size;
 483:Generated_Source\PSoC5/cyfitter_cfg.c **** 			CYCONFIGCPY(destPtr, srcPtr, numBytes);
 568              		.loc 1 483 0 discriminator 3
 569 003c 8022     		movs	r2, #128
 570 003e 016C     		ldr	r1, [r0, #64]	@ unaligned
 571              	.LVL44:
 572 0040 C06B     		ldr	r0, [r0, #60]	@ unaligned
 573              	.LVL45:
 574 0042 FFF7FEFF 		bl	CYCONFIGCPY
 575              	.LVL46:
 576              	.LBE5:
 477:Generated_Source\PSoC5/cyfitter_cfg.c **** 		{
 577              		.loc 1 477 0 discriminator 3
 578 0046 0134     		adds	r4, r4, #1
 579              	.LVL47:
 580 0048 E4B2     		uxtb	r4, r4
 581              	.LVL48:
 582              	.L40:
 477:Generated_Source\PSoC5/cyfitter_cfg.c **** 		{
 583              		.loc 1 477 0 is_stmt 0 discriminator 1
 584 004a 002C     		cmp	r4, #0
 585 004c F1D0     		beq	.L41
 484:Generated_Source\PSoC5/cyfitter_cfg.c **** 		}
 485:Generated_Source\PSoC5/cyfitter_cfg.c **** 
 486:Generated_Source\PSoC5/cyfitter_cfg.c **** 		cfg_write_bytes32(cy_cfg_addr_table, cy_cfg_data_table);
 586              		.loc 1 486 0 is_stmt 1
 587 004e 2649     		ldr	r1, .L43+8
 588 0050 4FF09040 		mov	r0, #1207959552
 589 0054 FFF7FEFF 		bl	cfg_write_bytes32
 590              	.LVL49:
 487:Generated_Source\PSoC5/cyfitter_cfg.c **** 
 488:Generated_Source\PSoC5/cyfitter_cfg.c **** 		/* Perform normal device configuration. Order is not critical for these items. */
 489:Generated_Source\PSoC5/cyfitter_cfg.c **** 		CY_SET_XTND_REG8((void CYFAR *)(CYREG_DSM0_CR3), 0x0Au);
 591              		.loc 1 489 0
 592 0058 0A22     		movs	r2, #10
 593 005a 244B     		ldr	r3, .L43+12
 594 005c 1A70     		strb	r2, [r3]
 490:Generated_Source\PSoC5/cyfitter_cfg.c **** 
 491:Generated_Source\PSoC5/cyfitter_cfg.c **** 		/* Enable digital routing */
 492:Generated_Source\PSoC5/cyfitter_cfg.c **** 		CY_SET_XTND_REG8((void CYFAR *)CYREG_BCTL0_BANK_CTL, CY_GET_XTND_REG8((void CYFAR *)CYREG_BCTL0_B
 595              		.loc 1 492 0
 596 005e 2449     		ldr	r1, .L43+16
 597 0060 0B78     		ldrb	r3, [r1]	@ zero_extendqisi2
 598 0062 43F00203 		orr	r3, r3, #2
 599 0066 0B70     		strb	r3, [r1]
 493:Generated_Source\PSoC5/cyfitter_cfg.c **** 		CY_SET_XTND_REG8((void CYFAR *)CYREG_BCTL1_BANK_CTL, CY_GET_XTND_REG8((void CYFAR *)CYREG_BCTL1_B
 600              		.loc 1 493 0
 601 0068 1031     		adds	r1, r1, #16
 602 006a 0B78     		ldrb	r3, [r1]	@ zero_extendqisi2
 603 006c 43F00203 		orr	r3, r3, #2
 604 0070 0B70     		strb	r3, [r1]
ARM GAS  C:\Users\Lab\AppData\Local\Temp\ccpurAxS.s 			page 21


 494:Generated_Source\PSoC5/cyfitter_cfg.c **** 
 495:Generated_Source\PSoC5/cyfitter_cfg.c **** 		/* Enable UDB array */
 496:Generated_Source\PSoC5/cyfitter_cfg.c **** 		CY_SET_XTND_REG8((void CYFAR *)CYREG_PM_ACT_CFG0, CY_GET_XTND_REG8((void CYFAR *)CYREG_PM_ACT_CFG
 605              		.loc 1 496 0
 606 0072 204C     		ldr	r4, .L43+20
 607              	.LVL50:
 608 0074 2378     		ldrb	r3, [r4]	@ zero_extendqisi2
 609 0076 43F04003 		orr	r3, r3, #64
 610 007a 2370     		strb	r3, [r4]
 497:Generated_Source\PSoC5/cyfitter_cfg.c **** 		CY_SET_XTND_REG8((void CYFAR *)CYREG_PM_AVAIL_CR2, CY_GET_XTND_REG8((void CYFAR *)CYREG_PM_AVAIL_
 611              		.loc 1 497 0
 612 007c A1F58631 		sub	r1, r1, #68608
 613 0080 5139     		subs	r1, r1, #81
 614 0082 0B78     		ldrb	r3, [r1]	@ zero_extendqisi2
 615 0084 43F01003 		orr	r3, r3, #16
 616 0088 0B70     		strb	r3, [r1]
 617              	.LBE3:
 498:Generated_Source\PSoC5/cyfitter_cfg.c **** 	}
 499:Generated_Source\PSoC5/cyfitter_cfg.c **** 
 500:Generated_Source\PSoC5/cyfitter_cfg.c **** 
 501:Generated_Source\PSoC5/cyfitter_cfg.c **** 	/* Perform second pass device configuration. These items must be configured in specific order afte
 502:Generated_Source\PSoC5/cyfitter_cfg.c **** 	CYCONFIGCPY((void CYFAR *)(CYREG_PRT12_DR), (const void CYFAR *)(BS_IOPINS0_7_VAL), 10u);
 618              		.loc 1 502 0
 619 008a 1B49     		ldr	r1, .L43+24
 620 008c 1B48     		ldr	r0, .L43+28
 621 008e FFF7FEFF 		bl	CYCONFIGCPY
 622              	.LVL51:
 503:Generated_Source\PSoC5/cyfitter_cfg.c **** 	CYCONFIGCPY((void CYFAR *)(CYREG_PRT15_DM0), (const void CYFAR *)(BS_IOPINS0_8_VAL), 8u);
 623              		.loc 1 503 0
 624 0092 0822     		movs	r2, #8
 625 0094 1A49     		ldr	r1, .L43+32
 626 0096 1B48     		ldr	r0, .L43+36
 627 0098 FFF7FEFF 		bl	CYCONFIGCPY
 628              	.LVL52:
 504:Generated_Source\PSoC5/cyfitter_cfg.c **** 	CYCONFIGCPY((void CYFAR *)(CYREG_PRT1_DM0), (const void CYFAR *)(BS_IOPINS0_1_VAL), 8u);
 629              		.loc 1 504 0
 630 009c 0822     		movs	r2, #8
 631 009e 1A49     		ldr	r1, .L43+40
 632 00a0 1A48     		ldr	r0, .L43+44
 633 00a2 FFF7FEFF 		bl	CYCONFIGCPY
 634              	.LVL53:
 505:Generated_Source\PSoC5/cyfitter_cfg.c **** 	CYCONFIGCPY((void CYFAR *)(CYREG_PRT2_DM0), (const void CYFAR *)(BS_IOPINS0_2_VAL), 8u);
 635              		.loc 1 505 0
 636 00a6 0822     		movs	r2, #8
 637 00a8 1949     		ldr	r1, .L43+48
 638 00aa 1A48     		ldr	r0, .L43+52
 639 00ac FFF7FEFF 		bl	CYCONFIGCPY
 640              	.LVL54:
 506:Generated_Source\PSoC5/cyfitter_cfg.c **** 	/* Switch Boost to the precision bandgap reference from its internal reference */
 507:Generated_Source\PSoC5/cyfitter_cfg.c **** 	CY_SET_REG8((void CYXDATA *)CYREG_BOOST_CR2, (CY_GET_REG8((void CYXDATA *)CYREG_BOOST_CR2) | 0x08u
 641              		.loc 1 507 0
 642 00b0 194A     		ldr	r2, .L43+56
 643 00b2 1378     		ldrb	r3, [r2]	@ zero_extendqisi2
 644 00b4 43F00803 		orr	r3, r3, #8
 645 00b8 1370     		strb	r3, [r2]
 508:Generated_Source\PSoC5/cyfitter_cfg.c **** 
 509:Generated_Source\PSoC5/cyfitter_cfg.c **** 	/* Set Flash Cycles based on max possible frequency in case a glitch occurs during ClockSetup(). *
ARM GAS  C:\Users\Lab\AppData\Local\Temp\ccpurAxS.s 			page 22


 510:Generated_Source\PSoC5/cyfitter_cfg.c **** 	CY_SET_XTND_REG8((void CYFAR *)(CYREG_CACHE_CC_CTL), (((CYDEV_INSTRUCT_CACHE_ENABLED) != 0) ? 0x61
 646              		.loc 1 510 0
 647 00ba 184D     		ldr	r5, .L43+60
 648 00bc 6123     		movs	r3, #97
 649 00be 2B70     		strb	r3, [r5]
 511:Generated_Source\PSoC5/cyfitter_cfg.c **** 	/* Setup clocks based on selections from Clock DWR */
 512:Generated_Source\PSoC5/cyfitter_cfg.c **** 	ClockSetup();
 650              		.loc 1 512 0
 651 00c0 FFF7FEFF 		bl	ClockSetup
 652              	.LVL55:
 513:Generated_Source\PSoC5/cyfitter_cfg.c **** 	/* Set Flash Cycles based on newly configured 24.00MHz Bus Clock. */
 514:Generated_Source\PSoC5/cyfitter_cfg.c **** 	CY_SET_XTND_REG8((void CYFAR *)(CYREG_CACHE_CC_CTL), (((CYDEV_INSTRUCT_CACHE_ENABLED) != 0) ? 0x81
 653              		.loc 1 514 0
 654 00c4 8123     		movs	r3, #129
 655 00c6 2B70     		strb	r3, [r5]
 515:Generated_Source\PSoC5/cyfitter_cfg.c **** 	CY_SET_XTND_REG8((void CYFAR *)(CYREG_PANTHER_WAITPIPE), 0x01u);
 656              		.loc 1 515 0
 657 00c8 0122     		movs	r2, #1
 658 00ca 154B     		ldr	r3, .L43+64
 659 00cc 1A70     		strb	r2, [r3]
 516:Generated_Source\PSoC5/cyfitter_cfg.c **** 
 517:Generated_Source\PSoC5/cyfitter_cfg.c **** 	/* Perform basic analog initialization to defaults */
 518:Generated_Source\PSoC5/cyfitter_cfg.c **** 	AnalogSetDefault();
 660              		.loc 1 518 0
 661 00ce FFF7FEFF 		bl	AnalogSetDefault
 662              	.LVL56:
 519:Generated_Source\PSoC5/cyfitter_cfg.c **** 
 520:Generated_Source\PSoC5/cyfitter_cfg.c **** 	/* Configure alternate active mode */
 521:Generated_Source\PSoC5/cyfitter_cfg.c **** 	CYCONFIGCPY((void CYFAR *)CYDEV_PM_STBY_BASE, (const void CYFAR *)CYDEV_PM_ACT_BASE, 14u);
 663              		.loc 1 521 0
 664 00d2 0E22     		movs	r2, #14
 665 00d4 2146     		mov	r1, r4
 666 00d6 1348     		ldr	r0, .L43+68
 667 00d8 FFF7FEFF 		bl	CYCONFIGCPY
 668              	.LVL57:
 669 00dc 38BD     		pop	{r3, r4, r5, pc}
 670              	.L44:
 671 00de 00BF     		.align	2
 672              	.L43:
 673 00e0 E8460040 		.word	1073759976
 674 00e4 00000000 		.word	.LANCHOR0
 675 00e8 68000048 		.word	1207959656
 676 00ec 83580040 		.word	1073764483
 677 00f0 03500140 		.word	1073827843
 678 00f4 A0430040 		.word	1073759136
 679 00f8 F8040048 		.word	1207960824
 680 00fc C0510040 		.word	1073762752
 681 0100 04050048 		.word	1207960836
 682 0104 F2510040 		.word	1073762802
 683 0108 0C050048 		.word	1207960844
 684 010c 12510040 		.word	1073762578
 685 0110 14050048 		.word	1207960852
 686 0114 22510040 		.word	1073762594
 687 0118 22430040 		.word	1073759010
 688 011c 00480040 		.word	1073760256
 689 0120 04000840 		.word	1074266116
 690 0124 B0430040 		.word	1073759152
ARM GAS  C:\Users\Lab\AppData\Local\Temp\ccpurAxS.s 			page 23


 691              		.cfi_endproc
 692              	.LFE10:
 693              		.size	cyfitter_cfg, .-cyfitter_cfg
 694              		.global	ADC_DelSig_1_AMux__maskTable
 695              		.global	ADC_DelSig_1_AMux__addrTable
 696              		.section	.rodata
 697              		.align	2
 698              		.set	.LANCHOR0,. + 0
 699              		.type	ADC_DelSig_1_AMux__addrTable, %object
 700              		.size	ADC_DelSig_1_AMux__addrTable, 8
 701              	ADC_DelSig_1_AMux__addrTable:
 702 0000 035B0040 		.word	1073765123
 703 0004 24430040 		.word	1073759012
 704              		.type	ADC_DelSig_1_AMux__maskTable, %object
 705              		.size	ADC_DelSig_1_AMux__maskTable, 2
 706              	ADC_DelSig_1_AMux__maskTable:
 707 0008 40       		.byte	64
 708 0009 00       		.byte	0
 709 000a 0000     		.space	2
 710              		.type	cfg_memset_list.5032, %object
 711              		.size	cfg_memset_list.5032, 48
 712              	cfg_memset_list.5032:
 713 000c 00510040 		.word	1073762560
 714 0010 1000     		.short	16
 715 0012 30510040 		.4byte	1073762608
 716 0016 4000     		.short	64
 717 0018 00000140 		.word	1073807360
 718 001c 0006     		.short	1536
 719 001e 80060140 		.4byte	1073809024
 720 0022 8009     		.short	2432
 721 0024 00140140 		.word	1073812480
 722 0028 0008     		.short	2048
 723 002a 00400140 		.4byte	1073823744
 724 002e 000A     		.short	2560
 725 0030 004C0140 		.word	1073826816
 726 0034 0002     		.short	512
 727 0036 00500140 		.4byte	1073827840
 728 003a 2000     		.short	32
 729              		.type	cfg_memcpy_list.5033, %object
 730              		.size	cfg_memcpy_list.5033, 10
 731              	cfg_memcpy_list.5033:
 732 003c 00060140 		.word	1073808896
 733 0040 78040048 		.word	1207960696
 734 0044 8000     		.short	128
 735              		.text
 736              	.Letext0:
 737              		.file 2 "c:\\program files (x86)\\cypress\\psoc creator\\4.4\\psoc creator\\import\\gnu\\arm\\5.4.
 738              		.file 3 "Generated_Source\\PSoC5\\cytypes.h"
 739              		.file 4 "Generated_Source\\PSoC5\\CyLib.h"