ARM GAS  C:\Users\Lab\AppData\Local\Temp\cciMmxzm.s 			page 1


   1              		.syntax unified
   2              		.cpu cortex-m3
   3              		.fpu softvfp
   4              		.eabi_attribute 20, 1
   5              		.eabi_attribute 21, 1
   6              		.eabi_attribute 23, 3
   7              		.eabi_attribute 24, 1
   8              		.eabi_attribute 25, 1
   9              		.eabi_attribute 26, 1
  10              		.eabi_attribute 30, 1
  11              		.eabi_attribute 34, 1
  12              		.eabi_attribute 18, 4
  13              		.thumb
  14              		.syntax unified
  15              		.file	"main.c"
  16              		.text
  17              	.Ltext0:
  18              		.cfi_sections	.debug_frame
  19              		.section	.text.MoveServoTo,"ax",%progbits
  20              		.align	2
  21              		.global	MoveServoTo
  22              		.thumb
  23              		.thumb_func
  24              		.type	MoveServoTo, %function
  25              	MoveServoTo:
  26              	.LFB63:
  27              		.file 1 "main.c"
   1:main.c        **** /* ========================================
   2:main.c        ****  *
   3:main.c        ****  * Copyright YOUR COMPANY, THE YEAR
   4:main.c        ****  * All Rights Reserved
   5:main.c        ****  * UNPUBLISHED, LICENSED SOFTWARE.
   6:main.c        ****  *
   7:main.c        ****  * CONFIDENTIAL AND PROPRIETARY INFORMATION
   8:main.c        ****  * WHICH IS THE PROPERTY OF your company.
   9:main.c        ****  *
  10:main.c        ****  * ========================================
  11:main.c        **** */
  12:main.c        **** #include "project.h"
  13:main.c        **** #include "math.h"
  14:main.c        **** 
  15:main.c        **** //#include "keypad.h"
  16:main.c        **** 
  17:main.c        **** 
  18:main.c        **** void MoveServoTo(int degrees) {
  28              		.loc 1 18 0
  29              		.cfi_startproc
  30              		@ args = 0, pretend = 0, frame = 0
  31              		@ frame_needed = 0, uses_anonymous_args = 0
  32              	.LVL0:
  33 0000 10B5     		push	{r4, lr}
  34              		.cfi_def_cfa_offset 8
  35              		.cfi_offset 4, -8
  36              		.cfi_offset 14, -4
  37 0002 0446     		mov	r4, r0
  19:main.c        ****     PWM_1_Start();
  38              		.loc 1 19 0
ARM GAS  C:\Users\Lab\AppData\Local\Temp\cciMmxzm.s 			page 2


  39 0004 FFF7FEFF 		bl	PWM_1_Start
  40              	.LVL1:
  20:main.c        ****     PWM_1_WriteCompare1(degrees / 9 + 13);
  41              		.loc 1 20 0
  42 0008 0848     		ldr	r0, .L3
  43 000a 80FB0430 		smull	r3, r0, r0, r4
  44 000e E417     		asrs	r4, r4, #31
  45              	.LVL2:
  46 0010 C4EB6000 		rsb	r0, r4, r0, asr #1
  47 0014 0D30     		adds	r0, r0, #13
  48 0016 C0B2     		uxtb	r0, r0
  49 0018 FFF7FEFF 		bl	PWM_1_WriteCompare1
  50              	.LVL3:
  21:main.c        ****     CyDelay(500);
  51              		.loc 1 21 0
  52 001c 4FF4FA70 		mov	r0, #500
  53 0020 FFF7FEFF 		bl	CyDelay
  54              	.LVL4:
  22:main.c        ****     PWM_1_Stop();
  55              		.loc 1 22 0
  56 0024 FFF7FEFF 		bl	PWM_1_Stop
  57              	.LVL5:
  58 0028 10BD     		pop	{r4, pc}
  59              	.L4:
  60 002a 00BF     		.align	2
  61              	.L3:
  62 002c 398EE338 		.word	954437177
  63              		.cfi_endproc
  64              	.LFE63:
  65              		.size	MoveServoTo, .-MoveServoTo
  66              		.section	.text.PressDownArrow,"ax",%progbits
  67              		.align	2
  68              		.global	PressDownArrow
  69              		.thumb
  70              		.thumb_func
  71              		.type	PressDownArrow, %function
  72              	PressDownArrow:
  73              	.LFB64:
  23:main.c        **** }
  24:main.c        **** 
  25:main.c        **** 
  26:main.c        **** void PressDownArrow() {
  74              		.loc 1 26 0
  75              		.cfi_startproc
  76              		@ args = 0, pretend = 0, frame = 0
  77              		@ frame_needed = 0, uses_anonymous_args = 0
  78 0000 08B5     		push	{r3, lr}
  79              		.cfi_def_cfa_offset 8
  80              		.cfi_offset 3, -8
  81              		.cfi_offset 14, -4
  27:main.c        ****     MoveServoTo(0);
  82              		.loc 1 27 0
  83 0002 0020     		movs	r0, #0
  84 0004 FFF7FEFF 		bl	MoveServoTo
  85              	.LVL6:
  86 0008 08BD     		pop	{r3, pc}
  87              		.cfi_endproc
ARM GAS  C:\Users\Lab\AppData\Local\Temp\cciMmxzm.s 			page 3


  88              	.LFE64:
  89              		.size	PressDownArrow, .-PressDownArrow
  90 000a 00BF     		.section	.text.PressUpArrow,"ax",%progbits
  91              		.align	2
  92              		.global	PressUpArrow
  93              		.thumb
  94              		.thumb_func
  95              		.type	PressUpArrow, %function
  96              	PressUpArrow:
  97              	.LFB65:
  28:main.c        **** }
  29:main.c        **** 
  30:main.c        **** 
  31:main.c        **** void PressUpArrow() {
  98              		.loc 1 31 0
  99              		.cfi_startproc
 100              		@ args = 0, pretend = 0, frame = 0
 101              		@ frame_needed = 0, uses_anonymous_args = 0
 102 0000 08B5     		push	{r3, lr}
 103              		.cfi_def_cfa_offset 8
 104              		.cfi_offset 3, -8
 105              		.cfi_offset 14, -4
  32:main.c        ****     MoveServoTo(100);
 106              		.loc 1 32 0
 107 0002 6420     		movs	r0, #100
 108 0004 FFF7FEFF 		bl	MoveServoTo
 109              	.LVL7:
 110 0008 08BD     		pop	{r3, pc}
 111              		.cfi_endproc
 112              	.LFE65:
 113              		.size	PressUpArrow, .-PressUpArrow
 114 000a 00BF     		.section	.text.JumpDino,"ax",%progbits
 115              		.align	2
 116              		.global	JumpDino
 117              		.thumb
 118              		.thumb_func
 119              		.type	JumpDino, %function
 120              	JumpDino:
 121              	.LFB66:
  33:main.c        **** }
  34:main.c        **** 
  35:main.c        **** void JumpDino(unsigned ms) {
 122              		.loc 1 35 0
 123              		.cfi_startproc
 124              		@ args = 0, pretend = 0, frame = 0
 125              		@ frame_needed = 0, uses_anonymous_args = 0
 126              	.LVL8:
 127 0000 10B5     		push	{r4, lr}
 128              		.cfi_def_cfa_offset 8
 129              		.cfi_offset 4, -8
 130              		.cfi_offset 14, -4
 131 0002 0446     		mov	r4, r0
  36:main.c        ****     
  37:main.c        ****     PressUpArrow();
 132              		.loc 1 37 0
 133 0004 FFF7FEFF 		bl	PressUpArrow
 134              	.LVL9:
ARM GAS  C:\Users\Lab\AppData\Local\Temp\cciMmxzm.s 			page 4


  38:main.c        ****     
  39:main.c        ****     CyDelay(ms);
 135              		.loc 1 39 0
 136 0008 2046     		mov	r0, r4
 137 000a FFF7FEFF 		bl	CyDelay
 138              	.LVL10:
  40:main.c        ****     
  41:main.c        ****     PressDownArrow();
 139              		.loc 1 41 0
 140 000e FFF7FEFF 		bl	PressDownArrow
 141              	.LVL11:
  42:main.c        ****     CyDelay(ms);
 142              		.loc 1 42 0
 143 0012 2046     		mov	r0, r4
 144 0014 FFF7FEFF 		bl	CyDelay
 145              	.LVL12:
 146 0018 10BD     		pop	{r4, pc}
 147              		.cfi_endproc
 148              	.LFE66:
 149              		.size	JumpDino, .-JumpDino
 150 001a 00BF     		.section	.text.main,"ax",%progbits
 151              		.align	2
 152              		.global	main
 153              		.thumb
 154              		.thumb_func
 155              		.type	main, %function
 156              	main:
 157              	.LFB67:
  43:main.c        **** }
  44:main.c        **** 
  45:main.c        **** int main(void)
  46:main.c        **** {
 158              		.loc 1 46 0
 159              		.cfi_startproc
 160              		@ Volatile: function does not return.
 161              		@ args = 0, pretend = 0, frame = 0
 162              		@ frame_needed = 0, uses_anonymous_args = 0
 163 0000 08B5     		push	{r3, lr}
 164              		.cfi_def_cfa_offset 8
 165              		.cfi_offset 3, -8
 166              		.cfi_offset 14, -4
  47:main.c        ****     CyGlobalIntEnable; /* Enable global interrupts. */
 167              		.loc 1 47 0
 168              		.syntax unified
 169              	@ 47 "main.c" 1
 170 0002 62B6     		CPSIE   i
 171              	@ 0 "" 2
  48:main.c        **** 
  49:main.c        ****     /* Place your initialization/startup code here (e.g. MyInst_Start()) */
  50:main.c        ****     ADC_DelSig_1_Start();       
 172              		.loc 1 50 0
 173              		.thumb
 174              		.syntax unified
 175 0004 FFF7FEFF 		bl	ADC_DelSig_1_Start
 176              	.LVL13:
  51:main.c        ****     LCD_Char_1_Init();
 177              		.loc 1 51 0
ARM GAS  C:\Users\Lab\AppData\Local\Temp\cciMmxzm.s 			page 5


 178 0008 FFF7FEFF 		bl	LCD_Char_1_Init
 179              	.LVL14:
  52:main.c        ****     
  53:main.c        ****             
  54:main.c        ****     LCD_Char_1_ClearDisplay();
 180              		.loc 1 54 0
 181 000c 0120     		movs	r0, #1
 182 000e FFF7FEFF 		bl	LCD_Char_1_WriteControl
 183              	.LVL15:
  55:main.c        ****     //LCD_Char_1_Position(0);
  56:main.c        ****     PWM_1_Init();
 184              		.loc 1 56 0
 185 0012 FFF7FEFF 		bl	PWM_1_Init
 186              	.LVL16:
  57:main.c        ****     
  58:main.c        ****       
  59:main.c        ****     PWM_1_Start();
 187              		.loc 1 59 0
 188 0016 FFF7FEFF 		bl	PWM_1_Start
 189              	.LVL17:
 190              	.L12:
  60:main.c        ****     
  61:main.c        **** 
  62:main.c        ****     for(;;)
  63:main.c        ****     {
  64:main.c        ****         //LCD_Char_1_PrintInt32(ADC_DelSig_1_Read32());
  65:main.c        ****         //CyDelay(500);
  66:main.c        ****         JumpDino(500);
 191              		.loc 1 66 0 discriminator 1
 192 001a 4FF4FA70 		mov	r0, #500
 193 001e FFF7FEFF 		bl	JumpDino
 194              	.LVL18:
  67:main.c        ****         //if (ADC_DelSig_1_Read32() < 32000){
  68:main.c        ****         //    JumpDino(500);
  69:main.c        ****         //}
  70:main.c        ****         CyDelay(100);
 195              		.loc 1 70 0 discriminator 1
 196 0022 6420     		movs	r0, #100
 197 0024 FFF7FEFF 		bl	CyDelay
 198              	.LVL19:
 199 0028 F7E7     		b	.L12
 200              		.cfi_endproc
 201              	.LFE67:
 202              		.size	main, .-main
 203 002a 00BF     		.text
 204              	.Letext0:
 205              		.file 2 "c:\\program files (x86)\\cypress\\psoc creator\\4.4\\psoc creator\\import\\gnu\\arm\\5.4.
 206              		.file 3 "c:\\program files (x86)\\cypress\\psoc creator\\4.4\\psoc creator\\import\\gnu\\arm\\5.4.
 207              		.file 4 "Generated_Source\\PSoC5/PWM_1.h"
 208              		.file 5 "Generated_Source\\PSoC5/CyLib.h"
 209              		.file 6 "Generated_Source\\PSoC5/ADC_DelSig_1.h"
 210              		.file 7 "Generated_Source\\PSoC5/LCD_Char_1.h"
 211              		.file 8 "Generated_Source\\PSoC5/core_cm3.h"