ARM GAS  C:\Users\bourg\AppData\Local\Temp\ccQ83UAt.s 			page 1


   1              		.syntax unified
   2              		.cpu cortex-m3
   3              		.fpu softvfp
   4              		.eabi_attribute 20, 1
   5              		.eabi_attribute 21, 1
   6              		.eabi_attribute 23, 3
   7              		.eabi_attribute 24, 1
   8              		.eabi_attribute 25, 1
   9              		.eabi_attribute 26, 1
  10              		.eabi_attribute 30, 1
  11              		.eabi_attribute 34, 1
  12              		.eabi_attribute 18, 4
  13              		.thumb
  14              		.syntax unified
  15              		.file	"keypad.c"
  16              		.text
  17              	.Ltext0:
  18              		.cfi_sections	.debug_frame
  19              		.section	.text.keypadInit,"ax",%progbits
  20              		.align	2
  21              		.global	keypadInit
  22              		.thumb
  23              		.thumb_func
  24              		.type	keypadInit, %function
  25              	keypadInit:
  26              	.LFB63:
  27              		.file 1 "keypad.c"
   1:keypad.c      **** /* ========================================
   2:keypad.c      ****  *
   3:keypad.c      ****  * Copyright YOUR COMPANY, THE YEAR
   4:keypad.c      ****  * All Rights Reserved
   5:keypad.c      ****  * UNPUBLISHED, LICENSED SOFTWARE.
   6:keypad.c      ****  *
   7:keypad.c      ****  * CONFIDENTIAL AND PROPRIETARY INFORMATION
   8:keypad.c      ****  * WHICH IS THE PROPERTY OF your company.
   9:keypad.c      ****  *
  10:keypad.c      ****  * ========================================
  11:keypad.c      **** */
  12:keypad.c      **** #include "project.h"
  13:keypad.c      **** 
  14:keypad.c      **** #define KBD_DELAY   5
  15:keypad.c      **** 
  16:keypad.c      **** 
  17:keypad.c      **** void keypadInit (void) {
  28              		.loc 1 17 0
  29              		.cfi_startproc
  30              		@ args = 0, pretend = 0, frame = 0
  31              		@ frame_needed = 0, uses_anonymous_args = 0
  32 0000 08B5     		push	{r3, lr}
  33              		.cfi_def_cfa_offset 8
  34              		.cfi_offset 3, -8
  35              		.cfi_offset 14, -4
  18:keypad.c      ****     COL1_Write(1);
  36              		.loc 1 18 0
  37 0002 0120     		movs	r0, #1
  38 0004 FFF7FEFF 		bl	COL1_Write
  39              	.LVL0:
ARM GAS  C:\Users\bourg\AppData\Local\Temp\ccQ83UAt.s 			page 2


  19:keypad.c      ****     COL2_Write(1);
  40              		.loc 1 19 0
  41 0008 0120     		movs	r0, #1
  42 000a FFF7FEFF 		bl	COL2_Write
  43              	.LVL1:
  20:keypad.c      ****     COL3_Write(1);
  44              		.loc 1 20 0
  45 000e 0120     		movs	r0, #1
  46 0010 FFF7FEFF 		bl	COL3_Write
  47              	.LVL2:
  48 0014 08BD     		pop	{r3, pc}
  49              		.cfi_endproc
  50              	.LFE63:
  51              		.size	keypadInit, .-keypadInit
  52 0016 00BF     		.section	.text.keypadScan,"ax",%progbits
  53              		.align	2
  54              		.global	keypadScan
  55              		.thumb
  56              		.thumb_func
  57              		.type	keypadScan, %function
  58              	keypadScan:
  59              	.LFB64:
  21:keypad.c      **** }
  22:keypad.c      **** 
  23:keypad.c      **** uint8_t keypadScan (void) {
  60              		.loc 1 23 0
  61              		.cfi_startproc
  62              		@ args = 0, pretend = 0, frame = 0
  63              		@ frame_needed = 0, uses_anonymous_args = 0
  64 0000 08B5     		push	{r3, lr}
  65              		.cfi_def_cfa_offset 8
  66              		.cfi_offset 3, -8
  67              		.cfi_offset 14, -4
  24:keypad.c      ****     COL1_Write(0);
  68              		.loc 1 24 0
  69 0002 0020     		movs	r0, #0
  70 0004 FFF7FEFF 		bl	COL1_Write
  71              	.LVL3:
  25:keypad.c      ****     CyDelay(KBD_DELAY);
  72              		.loc 1 25 0
  73 0008 0520     		movs	r0, #5
  74 000a FFF7FEFF 		bl	CyDelay
  75              	.LVL4:
  26:keypad.c      ****     if (!ROW0_Read()) {
  76              		.loc 1 26 0
  77 000e FFF7FEFF 		bl	ROW0_Read
  78              	.LVL5:
  79 0012 20B9     		cbnz	r0, .L4
  27:keypad.c      ****         COL1_Write(1);
  80              		.loc 1 27 0
  81 0014 0120     		movs	r0, #1
  82 0016 FFF7FEFF 		bl	COL1_Write
  83              	.LVL6:
  28:keypad.c      ****         return('#');
  84              		.loc 1 28 0
  85 001a 2320     		movs	r0, #35
  86 001c 08BD     		pop	{r3, pc}
ARM GAS  C:\Users\bourg\AppData\Local\Temp\ccQ83UAt.s 			page 3


  87              	.L4:
  29:keypad.c      ****     }
  30:keypad.c      ****     if (!ROW1_Read()) {
  88              		.loc 1 30 0
  89 001e FFF7FEFF 		bl	ROW1_Read
  90              	.LVL7:
  91 0022 20B9     		cbnz	r0, .L6
  31:keypad.c      ****         COL1_Write(1);
  92              		.loc 1 31 0
  93 0024 0120     		movs	r0, #1
  94 0026 FFF7FEFF 		bl	COL1_Write
  95              	.LVL8:
  32:keypad.c      ****         return('9');
  96              		.loc 1 32 0
  97 002a 3920     		movs	r0, #57
  98 002c 08BD     		pop	{r3, pc}
  99              	.L6:
  33:keypad.c      ****     }
  34:keypad.c      ****     if (!ROW2_Read()) {
 100              		.loc 1 34 0
 101 002e FFF7FEFF 		bl	ROW2_Read
 102              	.LVL9:
 103 0032 20B9     		cbnz	r0, .L7
  35:keypad.c      ****         COL1_Write(1);
 104              		.loc 1 35 0
 105 0034 0120     		movs	r0, #1
 106 0036 FFF7FEFF 		bl	COL1_Write
 107              	.LVL10:
  36:keypad.c      ****         return('6');
 108              		.loc 1 36 0
 109 003a 3620     		movs	r0, #54
 110 003c 08BD     		pop	{r3, pc}
 111              	.L7:
  37:keypad.c      ****     }
  38:keypad.c      ****     if (!ROW3_Read()) {
 112              		.loc 1 38 0
 113 003e FFF7FEFF 		bl	ROW3_Read
 114              	.LVL11:
 115 0042 20B9     		cbnz	r0, .L8
  39:keypad.c      ****         COL1_Write(1);
 116              		.loc 1 39 0
 117 0044 0120     		movs	r0, #1
 118 0046 FFF7FEFF 		bl	COL1_Write
 119              	.LVL12:
  40:keypad.c      ****         return('3');
 120              		.loc 1 40 0
 121 004a 3320     		movs	r0, #51
 122 004c 08BD     		pop	{r3, pc}
 123              	.L8:
  41:keypad.c      ****     }
  42:keypad.c      ****     COL1_Write(1);
 124              		.loc 1 42 0
 125 004e 0120     		movs	r0, #1
 126 0050 FFF7FEFF 		bl	COL1_Write
 127              	.LVL13:
  43:keypad.c      ****     
  44:keypad.c      ****     COL2_Write(0);
ARM GAS  C:\Users\bourg\AppData\Local\Temp\ccQ83UAt.s 			page 4


 128              		.loc 1 44 0
 129 0054 0020     		movs	r0, #0
 130 0056 FFF7FEFF 		bl	COL2_Write
 131              	.LVL14:
  45:keypad.c      ****     CyDelay(KBD_DELAY);
 132              		.loc 1 45 0
 133 005a 0520     		movs	r0, #5
 134 005c FFF7FEFF 		bl	CyDelay
 135              	.LVL15:
  46:keypad.c      ****     if (!ROW0_Read()) {
 136              		.loc 1 46 0
 137 0060 FFF7FEFF 		bl	ROW0_Read
 138              	.LVL16:
 139 0064 20B9     		cbnz	r0, .L9
  47:keypad.c      ****         COL2_Write(1);
 140              		.loc 1 47 0
 141 0066 0120     		movs	r0, #1
 142 0068 FFF7FEFF 		bl	COL2_Write
 143              	.LVL17:
  48:keypad.c      ****         return('0');
 144              		.loc 1 48 0
 145 006c 3020     		movs	r0, #48
 146 006e 08BD     		pop	{r3, pc}
 147              	.L9:
  49:keypad.c      ****     }
  50:keypad.c      ****     if (!ROW1_Read()) {
 148              		.loc 1 50 0
 149 0070 FFF7FEFF 		bl	ROW1_Read
 150              	.LVL18:
 151 0074 20B9     		cbnz	r0, .L10
  51:keypad.c      ****         COL2_Write(1);
 152              		.loc 1 51 0
 153 0076 0120     		movs	r0, #1
 154 0078 FFF7FEFF 		bl	COL2_Write
 155              	.LVL19:
  52:keypad.c      ****         return('8');
 156              		.loc 1 52 0
 157 007c 3820     		movs	r0, #56
 158 007e 08BD     		pop	{r3, pc}
 159              	.L10:
  53:keypad.c      ****     }
  54:keypad.c      ****     if (!ROW2_Read()) {
 160              		.loc 1 54 0
 161 0080 FFF7FEFF 		bl	ROW2_Read
 162              	.LVL20:
 163 0084 20B9     		cbnz	r0, .L11
  55:keypad.c      ****         COL2_Write(1);
 164              		.loc 1 55 0
 165 0086 0120     		movs	r0, #1
 166 0088 FFF7FEFF 		bl	COL2_Write
 167              	.LVL21:
  56:keypad.c      ****         return('5');
 168              		.loc 1 56 0
 169 008c 3520     		movs	r0, #53
 170 008e 08BD     		pop	{r3, pc}
 171              	.L11:
  57:keypad.c      ****     }
ARM GAS  C:\Users\bourg\AppData\Local\Temp\ccQ83UAt.s 			page 5


  58:keypad.c      ****     if (!ROW3_Read()) {
 172              		.loc 1 58 0
 173 0090 FFF7FEFF 		bl	ROW3_Read
 174              	.LVL22:
 175 0094 20B9     		cbnz	r0, .L12
  59:keypad.c      ****         COL2_Write(1);
 176              		.loc 1 59 0
 177 0096 0120     		movs	r0, #1
 178 0098 FFF7FEFF 		bl	COL2_Write
 179              	.LVL23:
  60:keypad.c      ****         return('2');
 180              		.loc 1 60 0
 181 009c 3220     		movs	r0, #50
 182 009e 08BD     		pop	{r3, pc}
 183              	.L12:
  61:keypad.c      ****     }
  62:keypad.c      ****     COL2_Write(1);
 184              		.loc 1 62 0
 185 00a0 0120     		movs	r0, #1
 186 00a2 FFF7FEFF 		bl	COL2_Write
 187              	.LVL24:
  63:keypad.c      **** 
  64:keypad.c      ****     COL3_Write(0);
 188              		.loc 1 64 0
 189 00a6 0020     		movs	r0, #0
 190 00a8 FFF7FEFF 		bl	COL3_Write
 191              	.LVL25:
  65:keypad.c      ****     CyDelay(KBD_DELAY);
 192              		.loc 1 65 0
 193 00ac 0520     		movs	r0, #5
 194 00ae FFF7FEFF 		bl	CyDelay
 195              	.LVL26:
  66:keypad.c      ****     if (!ROW0_Read()) {
 196              		.loc 1 66 0
 197 00b2 FFF7FEFF 		bl	ROW0_Read
 198              	.LVL27:
 199 00b6 20B9     		cbnz	r0, .L13
  67:keypad.c      ****         COL3_Write(1);
 200              		.loc 1 67 0
 201 00b8 0120     		movs	r0, #1
 202 00ba FFF7FEFF 		bl	COL3_Write
 203              	.LVL28:
  68:keypad.c      ****         return('*');
 204              		.loc 1 68 0
 205 00be 2A20     		movs	r0, #42
 206 00c0 08BD     		pop	{r3, pc}
 207              	.L13:
  69:keypad.c      ****     }
  70:keypad.c      ****     if (!ROW1_Read()) {
 208              		.loc 1 70 0
 209 00c2 FFF7FEFF 		bl	ROW1_Read
 210              	.LVL29:
 211 00c6 20B9     		cbnz	r0, .L14
  71:keypad.c      ****         COL3_Write(1);
 212              		.loc 1 71 0
 213 00c8 0120     		movs	r0, #1
 214 00ca FFF7FEFF 		bl	COL3_Write
ARM GAS  C:\Users\bourg\AppData\Local\Temp\ccQ83UAt.s 			page 6


 215              	.LVL30:
  72:keypad.c      ****         return('7');
 216              		.loc 1 72 0
 217 00ce 3720     		movs	r0, #55
 218 00d0 08BD     		pop	{r3, pc}
 219              	.L14:
  73:keypad.c      ****     }
  74:keypad.c      ****     if (!ROW2_Read()) {
 220              		.loc 1 74 0
 221 00d2 FFF7FEFF 		bl	ROW2_Read
 222              	.LVL31:
 223 00d6 20B9     		cbnz	r0, .L15
  75:keypad.c      ****         COL3_Write(1);
 224              		.loc 1 75 0
 225 00d8 0120     		movs	r0, #1
 226 00da FFF7FEFF 		bl	COL3_Write
 227              	.LVL32:
  76:keypad.c      ****         return('4');
 228              		.loc 1 76 0
 229 00de 3420     		movs	r0, #52
 230 00e0 08BD     		pop	{r3, pc}
 231              	.L15:
  77:keypad.c      ****     }
  78:keypad.c      ****     if (!ROW3_Read()) {
 232              		.loc 1 78 0
 233 00e2 FFF7FEFF 		bl	ROW3_Read
 234              	.LVL33:
 235 00e6 20B9     		cbnz	r0, .L16
  79:keypad.c      ****         COL3_Write(1);
 236              		.loc 1 79 0
 237 00e8 0120     		movs	r0, #1
 238 00ea FFF7FEFF 		bl	COL3_Write
 239              	.LVL34:
  80:keypad.c      ****         return('1');
 240              		.loc 1 80 0
 241 00ee 3120     		movs	r0, #49
 242 00f0 08BD     		pop	{r3, pc}
 243              	.L16:
  81:keypad.c      ****     }
  82:keypad.c      ****     COL3_Write(1);
 244              		.loc 1 82 0
 245 00f2 0120     		movs	r0, #1
 246 00f4 FFF7FEFF 		bl	COL3_Write
 247              	.LVL35:
  83:keypad.c      ****     
  84:keypad.c      ****     return('z');
 248              		.loc 1 84 0
 249 00f8 7A20     		movs	r0, #122
  85:keypad.c      **** }
 250              		.loc 1 85 0
 251 00fa 08BD     		pop	{r3, pc}
 252              		.cfi_endproc
 253              	.LFE64:
 254              		.size	keypadScan, .-keypadScan
 255              		.text
 256              	.Letext0:
 257              		.file 2 "c:\\program files (x86)\\cypress\\psoc creator\\4.4\\psoc creator\\import\\gnu\\arm\\5.4.
ARM GAS  C:\Users\bourg\AppData\Local\Temp\ccQ83UAt.s 			page 7


 258              		.file 3 "c:\\program files (x86)\\cypress\\psoc creator\\4.4\\psoc creator\\import\\gnu\\arm\\5.4.
 259              		.file 4 "Generated_Source\\PSoC5/COL1.h"
 260              		.file 5 "Generated_Source\\PSoC5/COL2.h"
 261              		.file 6 "Generated_Source\\PSoC5/COL3.h"
 262              		.file 7 "Generated_Source\\PSoC5/CyLib.h"
 263              		.file 8 "Generated_Source\\PSoC5/ROW0.h"
 264              		.file 9 "Generated_Source\\PSoC5/ROW1.h"
 265              		.file 10 "Generated_Source\\PSoC5/ROW2.h"
 266              		.file 11 "Generated_Source\\PSoC5/ROW3.h"
 267              		.file 12 "Generated_Source\\PSoC5/core_cm3.h"