ARM GAS  C:\Users\bourg\AppData\Local\Temp\ccVXPP01.s 			page 1


   1              		.syntax unified
   2              		.cpu cortex-m3
   3              		.fpu softvfp
   4              		.eabi_attribute 20, 1
   5              		.eabi_attribute 21, 1
   6              		.eabi_attribute 23, 3
   7              		.eabi_attribute 24, 1
   8              		.eabi_attribute 25, 1
   9              		.eabi_attribute 26, 1
  10              		.eabi_attribute 30, 1
  11              		.eabi_attribute 34, 1
  12              		.eabi_attribute 18, 4
  13              		.thumb
  14              		.syntax unified
  15              		.file	"cyfitter_cfg.c"
  16              		.text
  17              	.Ltext0:
  18              		.cfi_sections	.debug_frame
  19              		.section	.text.CyClockStartupError,"ax",%progbits
  20              		.align	2
  21              		.thumb
  22              		.thumb_func
  23              		.type	CyClockStartupError, %function
  24              	CyClockStartupError:
  25              	.LFB3:
  26              		.file 1 "Generated_Source\\PSoC5\\cyfitter_cfg.c"
   1:Generated_Source\PSoC5/cyfitter_cfg.c **** 
   2:Generated_Source\PSoC5/cyfitter_cfg.c **** /*******************************************************************************
   3:Generated_Source\PSoC5/cyfitter_cfg.c **** * File Name: cyfitter_cfg.c
   4:Generated_Source\PSoC5/cyfitter_cfg.c **** * 
   5:Generated_Source\PSoC5/cyfitter_cfg.c **** * PSoC Creator  4.4
   6:Generated_Source\PSoC5/cyfitter_cfg.c **** *
   7:Generated_Source\PSoC5/cyfitter_cfg.c **** * Description:
   8:Generated_Source\PSoC5/cyfitter_cfg.c **** * This file contains device initialization code.
   9:Generated_Source\PSoC5/cyfitter_cfg.c **** * Except for the user defined sections in CyClockStartupError(), this file should not be modified.
  10:Generated_Source\PSoC5/cyfitter_cfg.c **** * This file is automatically generated by PSoC Creator.
  11:Generated_Source\PSoC5/cyfitter_cfg.c **** *
  12:Generated_Source\PSoC5/cyfitter_cfg.c **** ********************************************************************************
  13:Generated_Source\PSoC5/cyfitter_cfg.c **** * Copyright (c) 2007-2020 Cypress Semiconductor.  All rights reserved.
  14:Generated_Source\PSoC5/cyfitter_cfg.c **** * You may use this file only in accordance with the license, terms, conditions, 
  15:Generated_Source\PSoC5/cyfitter_cfg.c **** * disclaimers, and limitations in the end user license agreement accompanying 
  16:Generated_Source\PSoC5/cyfitter_cfg.c **** * the software package with which this file was provided.
  17:Generated_Source\PSoC5/cyfitter_cfg.c **** ********************************************************************************/
  18:Generated_Source\PSoC5/cyfitter_cfg.c **** 
  19:Generated_Source\PSoC5/cyfitter_cfg.c **** #include <string.h>
  20:Generated_Source\PSoC5/cyfitter_cfg.c **** #include "cytypes.h"
  21:Generated_Source\PSoC5/cyfitter_cfg.c **** #include "cydevice_trm.h"
  22:Generated_Source\PSoC5/cyfitter_cfg.c **** #include "cyfitter.h"
  23:Generated_Source\PSoC5/cyfitter_cfg.c **** #include "CyLib.h"
  24:Generated_Source\PSoC5/cyfitter_cfg.c **** #include "cyfitter_cfg.h"
  25:Generated_Source\PSoC5/cyfitter_cfg.c **** #include "cyapicallbacks.h"
  26:Generated_Source\PSoC5/cyfitter_cfg.c **** 
  27:Generated_Source\PSoC5/cyfitter_cfg.c **** #define CY_NEED_CYCLOCKSTARTUPERROR 1
  28:Generated_Source\PSoC5/cyfitter_cfg.c **** 
  29:Generated_Source\PSoC5/cyfitter_cfg.c **** 
  30:Generated_Source\PSoC5/cyfitter_cfg.c **** #if defined(__GNUC__) || defined(__ARMCC_VERSION)
  31:Generated_Source\PSoC5/cyfitter_cfg.c ****     #define CYPACKED 
ARM GAS  C:\Users\bourg\AppData\Local\Temp\ccVXPP01.s 			page 2


  32:Generated_Source\PSoC5/cyfitter_cfg.c ****     #define CYPACKED_ATTR __attribute__ ((packed))
  33:Generated_Source\PSoC5/cyfitter_cfg.c ****     #define CYALIGNED __attribute__ ((aligned))
  34:Generated_Source\PSoC5/cyfitter_cfg.c ****     #define CY_CFG_UNUSED __attribute__ ((unused))
  35:Generated_Source\PSoC5/cyfitter_cfg.c ****     #ifndef CY_CFG_SECTION
  36:Generated_Source\PSoC5/cyfitter_cfg.c ****         #define CY_CFG_SECTION __attribute__ ((section(".psocinit")))
  37:Generated_Source\PSoC5/cyfitter_cfg.c ****     #endif
  38:Generated_Source\PSoC5/cyfitter_cfg.c ****     
  39:Generated_Source\PSoC5/cyfitter_cfg.c ****     #if defined(__ARMCC_VERSION)
  40:Generated_Source\PSoC5/cyfitter_cfg.c ****         #define CY_CFG_MEMORY_BARRIER() __memory_changed()
  41:Generated_Source\PSoC5/cyfitter_cfg.c ****     #else
  42:Generated_Source\PSoC5/cyfitter_cfg.c ****         #define CY_CFG_MEMORY_BARRIER() __sync_synchronize()
  43:Generated_Source\PSoC5/cyfitter_cfg.c ****     #endif
  44:Generated_Source\PSoC5/cyfitter_cfg.c ****     
  45:Generated_Source\PSoC5/cyfitter_cfg.c **** #elif defined(__ICCARM__)
  46:Generated_Source\PSoC5/cyfitter_cfg.c ****     #include <intrinsics.h>
  47:Generated_Source\PSoC5/cyfitter_cfg.c **** 
  48:Generated_Source\PSoC5/cyfitter_cfg.c ****     #define CYPACKED __packed
  49:Generated_Source\PSoC5/cyfitter_cfg.c ****     #define CYPACKED_ATTR 
  50:Generated_Source\PSoC5/cyfitter_cfg.c ****     #define CYALIGNED _Pragma("data_alignment=4")
  51:Generated_Source\PSoC5/cyfitter_cfg.c ****     #define CY_CFG_UNUSED _Pragma("diag_suppress=Pe177")
  52:Generated_Source\PSoC5/cyfitter_cfg.c ****     #define CY_CFG_SECTION _Pragma("location=\".psocinit\"")
  53:Generated_Source\PSoC5/cyfitter_cfg.c ****     
  54:Generated_Source\PSoC5/cyfitter_cfg.c ****     #define CY_CFG_MEMORY_BARRIER() __DMB()
  55:Generated_Source\PSoC5/cyfitter_cfg.c ****     
  56:Generated_Source\PSoC5/cyfitter_cfg.c **** #else
  57:Generated_Source\PSoC5/cyfitter_cfg.c ****     #error Unsupported toolchain
  58:Generated_Source\PSoC5/cyfitter_cfg.c **** #endif
  59:Generated_Source\PSoC5/cyfitter_cfg.c **** 
  60:Generated_Source\PSoC5/cyfitter_cfg.c **** #ifndef CYCODE
  61:Generated_Source\PSoC5/cyfitter_cfg.c ****     #define CYCODE
  62:Generated_Source\PSoC5/cyfitter_cfg.c **** #endif
  63:Generated_Source\PSoC5/cyfitter_cfg.c **** #ifndef CYDATA
  64:Generated_Source\PSoC5/cyfitter_cfg.c ****     #define CYDATA
  65:Generated_Source\PSoC5/cyfitter_cfg.c **** #endif
  66:Generated_Source\PSoC5/cyfitter_cfg.c **** #ifndef CYFAR
  67:Generated_Source\PSoC5/cyfitter_cfg.c ****     #define CYFAR
  68:Generated_Source\PSoC5/cyfitter_cfg.c **** #endif
  69:Generated_Source\PSoC5/cyfitter_cfg.c **** #ifndef CYXDATA
  70:Generated_Source\PSoC5/cyfitter_cfg.c ****     #define CYXDATA
  71:Generated_Source\PSoC5/cyfitter_cfg.c **** #endif
  72:Generated_Source\PSoC5/cyfitter_cfg.c **** 
  73:Generated_Source\PSoC5/cyfitter_cfg.c **** 
  74:Generated_Source\PSoC5/cyfitter_cfg.c **** CY_CFG_UNUSED
  75:Generated_Source\PSoC5/cyfitter_cfg.c **** static void CYMEMZERO(void *s, size_t n);
  76:Generated_Source\PSoC5/cyfitter_cfg.c **** CY_CFG_UNUSED
  77:Generated_Source\PSoC5/cyfitter_cfg.c **** static void CYMEMZERO(void *s, size_t n)
  78:Generated_Source\PSoC5/cyfitter_cfg.c **** {
  79:Generated_Source\PSoC5/cyfitter_cfg.c **** 	(void)memset(s, 0, n);
  80:Generated_Source\PSoC5/cyfitter_cfg.c **** }
  81:Generated_Source\PSoC5/cyfitter_cfg.c **** CY_CFG_UNUSED
  82:Generated_Source\PSoC5/cyfitter_cfg.c **** static void CYCONFIGCPY(void *dest, const void *src, size_t n);
  83:Generated_Source\PSoC5/cyfitter_cfg.c **** CY_CFG_UNUSED
  84:Generated_Source\PSoC5/cyfitter_cfg.c **** static void CYCONFIGCPY(void *dest, const void *src, size_t n)
  85:Generated_Source\PSoC5/cyfitter_cfg.c **** {
  86:Generated_Source\PSoC5/cyfitter_cfg.c **** 	(void)memcpy(dest, src, n);
  87:Generated_Source\PSoC5/cyfitter_cfg.c **** }
  88:Generated_Source\PSoC5/cyfitter_cfg.c **** CY_CFG_UNUSED
ARM GAS  C:\Users\bourg\AppData\Local\Temp\ccVXPP01.s 			page 3


  89:Generated_Source\PSoC5/cyfitter_cfg.c **** static void CYCONFIGCPYCODE(void *dest, const void *src, size_t n);
  90:Generated_Source\PSoC5/cyfitter_cfg.c **** CY_CFG_UNUSED
  91:Generated_Source\PSoC5/cyfitter_cfg.c **** static void CYCONFIGCPYCODE(void *dest, const void *src, size_t n)
  92:Generated_Source\PSoC5/cyfitter_cfg.c **** {
  93:Generated_Source\PSoC5/cyfitter_cfg.c **** 	(void)memcpy(dest, src, n);
  94:Generated_Source\PSoC5/cyfitter_cfg.c **** }
  95:Generated_Source\PSoC5/cyfitter_cfg.c **** 
  96:Generated_Source\PSoC5/cyfitter_cfg.c **** 
  97:Generated_Source\PSoC5/cyfitter_cfg.c **** 
  98:Generated_Source\PSoC5/cyfitter_cfg.c **** 
  99:Generated_Source\PSoC5/cyfitter_cfg.c **** /* Clock startup error codes                                                   */
 100:Generated_Source\PSoC5/cyfitter_cfg.c **** #define CYCLOCKSTART_NO_ERROR    0u
 101:Generated_Source\PSoC5/cyfitter_cfg.c **** #define CYCLOCKSTART_XTAL_ERROR  1u
 102:Generated_Source\PSoC5/cyfitter_cfg.c **** #define CYCLOCKSTART_32KHZ_ERROR 2u
 103:Generated_Source\PSoC5/cyfitter_cfg.c **** #define CYCLOCKSTART_PLL_ERROR   3u
 104:Generated_Source\PSoC5/cyfitter_cfg.c **** #define CYCLOCKSTART_FLL_ERROR   4u
 105:Generated_Source\PSoC5/cyfitter_cfg.c **** #define CYCLOCKSTART_WCO_ERROR   5u
 106:Generated_Source\PSoC5/cyfitter_cfg.c **** 
 107:Generated_Source\PSoC5/cyfitter_cfg.c **** 
 108:Generated_Source\PSoC5/cyfitter_cfg.c **** #ifdef CY_NEED_CYCLOCKSTARTUPERROR
 109:Generated_Source\PSoC5/cyfitter_cfg.c **** /*******************************************************************************
 110:Generated_Source\PSoC5/cyfitter_cfg.c **** * Function Name: CyClockStartupError
 111:Generated_Source\PSoC5/cyfitter_cfg.c **** ********************************************************************************
 112:Generated_Source\PSoC5/cyfitter_cfg.c **** * Summary:
 113:Generated_Source\PSoC5/cyfitter_cfg.c **** *  If an error is encountered during clock configuration (crystal startup error,
 114:Generated_Source\PSoC5/cyfitter_cfg.c **** *  PLL lock error, etc.), the system will end up here.  Unless reimplemented by
 115:Generated_Source\PSoC5/cyfitter_cfg.c **** *  the customer, this function will stop in an infinite loop.
 116:Generated_Source\PSoC5/cyfitter_cfg.c **** *
 117:Generated_Source\PSoC5/cyfitter_cfg.c **** * Parameters:
 118:Generated_Source\PSoC5/cyfitter_cfg.c **** *   void
 119:Generated_Source\PSoC5/cyfitter_cfg.c **** *
 120:Generated_Source\PSoC5/cyfitter_cfg.c **** * Return:
 121:Generated_Source\PSoC5/cyfitter_cfg.c **** *   void
 122:Generated_Source\PSoC5/cyfitter_cfg.c **** *
 123:Generated_Source\PSoC5/cyfitter_cfg.c **** *******************************************************************************/
 124:Generated_Source\PSoC5/cyfitter_cfg.c **** CY_CFG_UNUSED
 125:Generated_Source\PSoC5/cyfitter_cfg.c **** static void CyClockStartupError(uint8 errorCode);
 126:Generated_Source\PSoC5/cyfitter_cfg.c **** CY_CFG_UNUSED
 127:Generated_Source\PSoC5/cyfitter_cfg.c **** static void CyClockStartupError(uint8 errorCode)
 128:Generated_Source\PSoC5/cyfitter_cfg.c **** {
  27              		.loc 1 128 0
  28              		.cfi_startproc
  29              		@ Volatile: function does not return.
  30              		@ args = 0, pretend = 0, frame = 0
  31              		@ frame_needed = 0, uses_anonymous_args = 0
  32              		@ link register save eliminated.
  33              	.LVL0:
  34              	.L2:
  35 0000 FEE7     		b	.L2
  36              		.cfi_endproc
  37              	.LFE3:
  38              		.size	CyClockStartupError, .-CyClockStartupError
  39 0002 00BF     		.section	.text.cfg_write_bytes32,"ax",%progbits
  40              		.align	2
  41              		.thumb
  42              		.thumb_func
  43              		.type	cfg_write_bytes32, %function
ARM GAS  C:\Users\bourg\AppData\Local\Temp\ccVXPP01.s 			page 4


  44              	cfg_write_bytes32:
  45              	.LFB4:
 129:Generated_Source\PSoC5/cyfitter_cfg.c ****     /* To remove the compiler warning if errorCode not used.                */
 130:Generated_Source\PSoC5/cyfitter_cfg.c ****     errorCode = errorCode;
 131:Generated_Source\PSoC5/cyfitter_cfg.c **** 
 132:Generated_Source\PSoC5/cyfitter_cfg.c ****     /* If we have a clock startup error (bad MHz crystal, PLL lock, etc.),  */
 133:Generated_Source\PSoC5/cyfitter_cfg.c ****     /* we will end up here to allow the customer to implement something to  */
 134:Generated_Source\PSoC5/cyfitter_cfg.c ****     /* deal with the clock condition.                                       */
 135:Generated_Source\PSoC5/cyfitter_cfg.c **** 
 136:Generated_Source\PSoC5/cyfitter_cfg.c **** #ifdef CY_CFG_CLOCK_STARTUP_ERROR_CALLBACK
 137:Generated_Source\PSoC5/cyfitter_cfg.c ****     CY_CFG_Clock_Startup_ErrorCallback();
 138:Generated_Source\PSoC5/cyfitter_cfg.c **** #else
 139:Generated_Source\PSoC5/cyfitter_cfg.c ****     /*  If not using CY_CFG_CLOCK_STARTUP_ERROR_CALLBACK, place your clock startup code here. */
 140:Generated_Source\PSoC5/cyfitter_cfg.c ****     /* `#START CyClockStartupError` */
 141:Generated_Source\PSoC5/cyfitter_cfg.c **** 
 142:Generated_Source\PSoC5/cyfitter_cfg.c **** 
 143:Generated_Source\PSoC5/cyfitter_cfg.c **** 
 144:Generated_Source\PSoC5/cyfitter_cfg.c ****     /* `#END` */
 145:Generated_Source\PSoC5/cyfitter_cfg.c **** 
 146:Generated_Source\PSoC5/cyfitter_cfg.c ****     while(1) {}
 147:Generated_Source\PSoC5/cyfitter_cfg.c **** #endif /* CY_CFG_CLOCK_STARTUP_ERROR_CALLBACK */
 148:Generated_Source\PSoC5/cyfitter_cfg.c **** }
 149:Generated_Source\PSoC5/cyfitter_cfg.c **** #endif
 150:Generated_Source\PSoC5/cyfitter_cfg.c **** 
 151:Generated_Source\PSoC5/cyfitter_cfg.c **** #define CY_CFG_BASE_ADDR_COUNT 7u
 152:Generated_Source\PSoC5/cyfitter_cfg.c **** CYPACKED typedef struct
 153:Generated_Source\PSoC5/cyfitter_cfg.c **** {
 154:Generated_Source\PSoC5/cyfitter_cfg.c **** 	uint8 offset;
 155:Generated_Source\PSoC5/cyfitter_cfg.c **** 	uint8 value;
 156:Generated_Source\PSoC5/cyfitter_cfg.c **** } CYPACKED_ATTR cy_cfg_addrvalue_t;
 157:Generated_Source\PSoC5/cyfitter_cfg.c **** 
 158:Generated_Source\PSoC5/cyfitter_cfg.c **** #define cy_cfg_addr_table ((const uint32 CYFAR *)0x48000000u)
 159:Generated_Source\PSoC5/cyfitter_cfg.c **** #define cy_cfg_data_table ((const cy_cfg_addrvalue_t CYFAR *)0x4800001Cu)
 160:Generated_Source\PSoC5/cyfitter_cfg.c **** 
 161:Generated_Source\PSoC5/cyfitter_cfg.c **** /* IOPINS0_8 Address: CYREG_PRT15_DM0 Size (bytes): 8 */
 162:Generated_Source\PSoC5/cyfitter_cfg.c **** #define BS_IOPINS0_8_VAL ((const uint8 CYFAR *)0x48000038u)
 163:Generated_Source\PSoC5/cyfitter_cfg.c **** 
 164:Generated_Source\PSoC5/cyfitter_cfg.c **** /* IOPINS0_1 Address: CYREG_PRT1_DM0 Size (bytes): 8 */
 165:Generated_Source\PSoC5/cyfitter_cfg.c **** #define BS_IOPINS0_1_VAL ((const uint8 CYFAR *)0x48000040u)
 166:Generated_Source\PSoC5/cyfitter_cfg.c **** 
 167:Generated_Source\PSoC5/cyfitter_cfg.c **** 
 168:Generated_Source\PSoC5/cyfitter_cfg.c **** /*******************************************************************************
 169:Generated_Source\PSoC5/cyfitter_cfg.c **** * Function Name: cfg_write_bytes32
 170:Generated_Source\PSoC5/cyfitter_cfg.c **** ********************************************************************************
 171:Generated_Source\PSoC5/cyfitter_cfg.c **** * Summary:
 172:Generated_Source\PSoC5/cyfitter_cfg.c **** *  This function is used for setting up the chip configuration areas that
 173:Generated_Source\PSoC5/cyfitter_cfg.c **** *  contain relatively sparse data.
 174:Generated_Source\PSoC5/cyfitter_cfg.c **** *
 175:Generated_Source\PSoC5/cyfitter_cfg.c **** * Parameters:
 176:Generated_Source\PSoC5/cyfitter_cfg.c **** *   void
 177:Generated_Source\PSoC5/cyfitter_cfg.c **** *
 178:Generated_Source\PSoC5/cyfitter_cfg.c **** * Return:
 179:Generated_Source\PSoC5/cyfitter_cfg.c **** *   void
 180:Generated_Source\PSoC5/cyfitter_cfg.c **** *
 181:Generated_Source\PSoC5/cyfitter_cfg.c **** *******************************************************************************/
 182:Generated_Source\PSoC5/cyfitter_cfg.c **** static void cfg_write_bytes32(const uint32 addr_table[], const cy_cfg_addrvalue_t data_table[]);
 183:Generated_Source\PSoC5/cyfitter_cfg.c **** static void cfg_write_bytes32(const uint32 addr_table[], const cy_cfg_addrvalue_t data_table[])
ARM GAS  C:\Users\bourg\AppData\Local\Temp\ccVXPP01.s 			page 5


 184:Generated_Source\PSoC5/cyfitter_cfg.c **** {
  46              		.loc 1 184 0
  47              		.cfi_startproc
  48              		@ args = 0, pretend = 0, frame = 0
  49              		@ frame_needed = 0, uses_anonymous_args = 0
  50              		@ link register save eliminated.
  51              	.LVL1:
  52              		.loc 1 184 0
  53 0000 F0B4     		push	{r4, r5, r6, r7}
  54              		.cfi_def_cfa_offset 16
  55              		.cfi_offset 4, -16
  56              		.cfi_offset 5, -12
  57              		.cfi_offset 6, -8
  58              		.cfi_offset 7, -4
  59              	.LVL2:
 185:Generated_Source\PSoC5/cyfitter_cfg.c **** 	/* For 32-bit little-endian architectures */
 186:Generated_Source\PSoC5/cyfitter_cfg.c **** 	uint32 i, j = 0u;
  60              		.loc 1 186 0
  61 0002 0022     		movs	r2, #0
 187:Generated_Source\PSoC5/cyfitter_cfg.c **** 	for (i = 0u; i < CY_CFG_BASE_ADDR_COUNT; i++)
  62              		.loc 1 187 0
  63 0004 1746     		mov	r7, r2
  64 0006 11E0     		b	.L4
  65              	.LVL3:
  66              	.L7:
  67              	.LBB2:
 188:Generated_Source\PSoC5/cyfitter_cfg.c **** 	{
 189:Generated_Source\PSoC5/cyfitter_cfg.c **** 		uint32 baseAddr = addr_table[i];
  68              		.loc 1 189 0
  69 0008 50F82760 		ldr	r6, [r0, r7, lsl #2]
  70              	.LVL4:
 190:Generated_Source\PSoC5/cyfitter_cfg.c **** 		uint8 count = (uint8)baseAddr;
  71              		.loc 1 190 0
  72 000c F3B2     		uxtb	r3, r6
  73              	.LVL5:
 191:Generated_Source\PSoC5/cyfitter_cfg.c **** 		baseAddr &= 0xFFFFFF00u;
  74              		.loc 1 191 0
  75 000e 26F0FF06 		bic	r6, r6, #255
  76              	.LVL6:
 192:Generated_Source\PSoC5/cyfitter_cfg.c **** 		while (count != 0u)
  77              		.loc 1 192 0
  78 0012 08E0     		b	.L5
  79              	.L6:
 193:Generated_Source\PSoC5/cyfitter_cfg.c **** 		{
 194:Generated_Source\PSoC5/cyfitter_cfg.c **** 			CY_SET_REG8((void *)(baseAddr + data_table[j].offset), data_table[j].value);
  80              		.loc 1 194 0
  81 0014 01EB4205 		add	r5, r1, r2, lsl #1
  82 0018 11F81240 		ldrb	r4, [r1, r2, lsl #1]	@ zero_extendqisi2
  83 001c 6D78     		ldrb	r5, [r5, #1]	@ zero_extendqisi2
  84 001e A555     		strb	r5, [r4, r6]
 195:Generated_Source\PSoC5/cyfitter_cfg.c **** 			j++;
  85              		.loc 1 195 0
  86 0020 0132     		adds	r2, r2, #1
  87              	.LVL7:
 196:Generated_Source\PSoC5/cyfitter_cfg.c **** 			count--;
  88              		.loc 1 196 0
  89 0022 013B     		subs	r3, r3, #1
ARM GAS  C:\Users\bourg\AppData\Local\Temp\ccVXPP01.s 			page 6


  90              	.LVL8:
  91 0024 DBB2     		uxtb	r3, r3
  92              	.LVL9:
  93              	.L5:
 192:Generated_Source\PSoC5/cyfitter_cfg.c **** 		{
  94              		.loc 1 192 0
  95 0026 002B     		cmp	r3, #0
  96 0028 F4D1     		bne	.L6
  97              	.LBE2:
 187:Generated_Source\PSoC5/cyfitter_cfg.c **** 	{
  98              		.loc 1 187 0 discriminator 2
  99 002a 0137     		adds	r7, r7, #1
 100              	.LVL10:
 101              	.L4:
 187:Generated_Source\PSoC5/cyfitter_cfg.c **** 	{
 102              		.loc 1 187 0 is_stmt 0 discriminator 1
 103 002c 062F     		cmp	r7, #6
 104 002e EBD9     		bls	.L7
 197:Generated_Source\PSoC5/cyfitter_cfg.c **** 		}
 198:Generated_Source\PSoC5/cyfitter_cfg.c **** 	}
 199:Generated_Source\PSoC5/cyfitter_cfg.c **** }
 105              		.loc 1 199 0 is_stmt 1
 106 0030 F0BC     		pop	{r4, r5, r6, r7}
 107              		.cfi_restore 7
 108              		.cfi_restore 6
 109              		.cfi_restore 5
 110              		.cfi_restore 4
 111              		.cfi_def_cfa_offset 0
 112              	.LVL11:
 113 0032 7047     		bx	lr
 114              		.cfi_endproc
 115              	.LFE4:
 116              		.size	cfg_write_bytes32, .-cfg_write_bytes32
 117              		.section	.text.AnalogSetDefault,"ax",%progbits
 118              		.align	2
 119              		.thumb
 120              		.thumb_func
 121              		.type	AnalogSetDefault, %function
 122              	AnalogSetDefault:
 123              	.LFB6:
 200:Generated_Source\PSoC5/cyfitter_cfg.c **** 
 201:Generated_Source\PSoC5/cyfitter_cfg.c **** /*******************************************************************************
 202:Generated_Source\PSoC5/cyfitter_cfg.c **** * Function Name: ClockSetup
 203:Generated_Source\PSoC5/cyfitter_cfg.c **** ********************************************************************************
 204:Generated_Source\PSoC5/cyfitter_cfg.c **** *
 205:Generated_Source\PSoC5/cyfitter_cfg.c **** * Summary:
 206:Generated_Source\PSoC5/cyfitter_cfg.c **** *  Performs the initialization of all of the clocks in the device based on the
 207:Generated_Source\PSoC5/cyfitter_cfg.c **** *  settings in the Clock tab of the DWR.  This includes enabling the requested
 208:Generated_Source\PSoC5/cyfitter_cfg.c **** *  clocks and setting the necessary dividers to produce the desired frequency. 
 209:Generated_Source\PSoC5/cyfitter_cfg.c **** *
 210:Generated_Source\PSoC5/cyfitter_cfg.c **** * Parameters:
 211:Generated_Source\PSoC5/cyfitter_cfg.c **** *  void
 212:Generated_Source\PSoC5/cyfitter_cfg.c **** *
 213:Generated_Source\PSoC5/cyfitter_cfg.c **** * Return:
 214:Generated_Source\PSoC5/cyfitter_cfg.c **** *  void
 215:Generated_Source\PSoC5/cyfitter_cfg.c **** *
 216:Generated_Source\PSoC5/cyfitter_cfg.c **** *******************************************************************************/
ARM GAS  C:\Users\bourg\AppData\Local\Temp\ccVXPP01.s 			page 7


 217:Generated_Source\PSoC5/cyfitter_cfg.c **** static void ClockSetup(void);
 218:Generated_Source\PSoC5/cyfitter_cfg.c **** static void ClockSetup(void)
 219:Generated_Source\PSoC5/cyfitter_cfg.c **** {
 220:Generated_Source\PSoC5/cyfitter_cfg.c **** 	uint32 timeout;
 221:Generated_Source\PSoC5/cyfitter_cfg.c **** 	uint8 pllLock;
 222:Generated_Source\PSoC5/cyfitter_cfg.c **** 
 223:Generated_Source\PSoC5/cyfitter_cfg.c **** 
 224:Generated_Source\PSoC5/cyfitter_cfg.c **** 	/* Configure ILO based on settings from Clock DWR */
 225:Generated_Source\PSoC5/cyfitter_cfg.c **** 	CY_SET_XTND_REG8((void CYFAR *)(CYREG_SLOWCLK_ILO_CR0), 0x02u);
 226:Generated_Source\PSoC5/cyfitter_cfg.c **** 	CY_SET_XTND_REG8((void CYFAR *)(CYREG_CLKDIST_CR), 0x08u);
 227:Generated_Source\PSoC5/cyfitter_cfg.c **** 
 228:Generated_Source\PSoC5/cyfitter_cfg.c **** 	/* Configure IMO based on settings from Clock DWR */
 229:Generated_Source\PSoC5/cyfitter_cfg.c **** 	CY_SET_XTND_REG8((void CYFAR *)(CYREG_FASTCLK_IMO_CR), 0x03u);
 230:Generated_Source\PSoC5/cyfitter_cfg.c **** 	CY_SET_XTND_REG8((void CYFAR *)(CYREG_IMO_TR1), (CY_GET_XTND_REG8((void CYFAR *)CYREG_FLSHID_CUST_
 231:Generated_Source\PSoC5/cyfitter_cfg.c **** 
 232:Generated_Source\PSoC5/cyfitter_cfg.c **** 	/* Configure PLL based on settings from Clock DWR */
 233:Generated_Source\PSoC5/cyfitter_cfg.c **** 	CY_SET_XTND_REG16((void CYFAR *)(CYREG_FASTCLK_PLL_P), 0x0008u);
 234:Generated_Source\PSoC5/cyfitter_cfg.c **** 	CY_SET_XTND_REG16((void CYFAR *)(CYREG_FASTCLK_PLL_CFG0), 0x1251u);
 235:Generated_Source\PSoC5/cyfitter_cfg.c **** 	/* Wait up to 250us for the PLL to lock */
 236:Generated_Source\PSoC5/cyfitter_cfg.c **** 	pllLock = 0u;
 237:Generated_Source\PSoC5/cyfitter_cfg.c **** 	for (timeout = 250u / 10u; (timeout > 0u) && (pllLock != 0x03u); timeout--)
 238:Generated_Source\PSoC5/cyfitter_cfg.c **** 	{ 
 239:Generated_Source\PSoC5/cyfitter_cfg.c **** 		pllLock = 0x03u & ((uint8)((uint8)pllLock << 1) | ((CY_GET_XTND_REG8((void CYFAR *)CYREG_FASTCLK_
 240:Generated_Source\PSoC5/cyfitter_cfg.c **** 		CyDelayCycles(10u * 48u); /* Delay 10us based on 48MHz clock */
 241:Generated_Source\PSoC5/cyfitter_cfg.c **** 	}
 242:Generated_Source\PSoC5/cyfitter_cfg.c **** 	/* If we ran out of time the PLL didn't lock so go to the error function */
 243:Generated_Source\PSoC5/cyfitter_cfg.c **** 	if (timeout == 0u)
 244:Generated_Source\PSoC5/cyfitter_cfg.c **** 	{
 245:Generated_Source\PSoC5/cyfitter_cfg.c **** 		CyClockStartupError(CYCLOCKSTART_PLL_ERROR);
 246:Generated_Source\PSoC5/cyfitter_cfg.c **** 	}
 247:Generated_Source\PSoC5/cyfitter_cfg.c **** 
 248:Generated_Source\PSoC5/cyfitter_cfg.c **** 	/* Configure Bus/Master Clock based on settings from Clock DWR */
 249:Generated_Source\PSoC5/cyfitter_cfg.c **** 	CY_SET_XTND_REG16((void CYFAR *)(CYREG_CLKDIST_MSTR0), 0x0100u);
 250:Generated_Source\PSoC5/cyfitter_cfg.c **** 	CY_SET_XTND_REG8((void CYFAR *)(CYREG_CLKDIST_MSTR0), 0x07u);
 251:Generated_Source\PSoC5/cyfitter_cfg.c **** 	CY_SET_XTND_REG8((void CYFAR *)(CYREG_CLKDIST_BCFG0), 0x00u);
 252:Generated_Source\PSoC5/cyfitter_cfg.c **** 	CY_SET_XTND_REG8((void CYFAR *)(CYREG_CLKDIST_BCFG2), 0x48u);
 253:Generated_Source\PSoC5/cyfitter_cfg.c **** 	CY_SET_XTND_REG8((void CYFAR *)(CYREG_CLKDIST_MSTR0), 0x00u);
 254:Generated_Source\PSoC5/cyfitter_cfg.c **** 	CY_SET_XTND_REG8((void CYFAR *)(CYREG_CLKDIST_LD), 0x02u);
 255:Generated_Source\PSoC5/cyfitter_cfg.c **** }
 256:Generated_Source\PSoC5/cyfitter_cfg.c **** 
 257:Generated_Source\PSoC5/cyfitter_cfg.c **** 
 258:Generated_Source\PSoC5/cyfitter_cfg.c **** /* Analog API Functions */
 259:Generated_Source\PSoC5/cyfitter_cfg.c **** 
 260:Generated_Source\PSoC5/cyfitter_cfg.c **** 
 261:Generated_Source\PSoC5/cyfitter_cfg.c **** /*******************************************************************************
 262:Generated_Source\PSoC5/cyfitter_cfg.c **** * Function Name: AnalogSetDefault
 263:Generated_Source\PSoC5/cyfitter_cfg.c **** ********************************************************************************
 264:Generated_Source\PSoC5/cyfitter_cfg.c **** *
 265:Generated_Source\PSoC5/cyfitter_cfg.c **** * Summary:
 266:Generated_Source\PSoC5/cyfitter_cfg.c **** *  Sets up the analog portions of the chip to default values based on chip
 267:Generated_Source\PSoC5/cyfitter_cfg.c **** *  configuration options from the project.
 268:Generated_Source\PSoC5/cyfitter_cfg.c **** *
 269:Generated_Source\PSoC5/cyfitter_cfg.c **** * Parameters:
 270:Generated_Source\PSoC5/cyfitter_cfg.c **** *  void
 271:Generated_Source\PSoC5/cyfitter_cfg.c **** *
 272:Generated_Source\PSoC5/cyfitter_cfg.c **** * Return:
 273:Generated_Source\PSoC5/cyfitter_cfg.c **** *  void
ARM GAS  C:\Users\bourg\AppData\Local\Temp\ccVXPP01.s 			page 8


 274:Generated_Source\PSoC5/cyfitter_cfg.c **** *
 275:Generated_Source\PSoC5/cyfitter_cfg.c **** *******************************************************************************/
 276:Generated_Source\PSoC5/cyfitter_cfg.c **** static void AnalogSetDefault(void);
 277:Generated_Source\PSoC5/cyfitter_cfg.c **** static void AnalogSetDefault(void)
 278:Generated_Source\PSoC5/cyfitter_cfg.c **** {
 124              		.loc 1 278 0
 125              		.cfi_startproc
 126              		@ args = 0, pretend = 0, frame = 0
 127              		@ frame_needed = 0, uses_anonymous_args = 0
 128              		@ link register save eliminated.
 279:Generated_Source\PSoC5/cyfitter_cfg.c **** 	uint8 bg_xover_inl_trim = CY_GET_XTND_REG8((void CYFAR *)(CYREG_FLSHID_MFG_CFG_BG_XOVER_INL_TRIM +
 129              		.loc 1 279 0
 130 0000 0A4B     		ldr	r3, .L10
 131 0002 1B78     		ldrb	r3, [r3]	@ zero_extendqisi2
 132 0004 DBB2     		uxtb	r3, r3
 133              	.LVL12:
 280:Generated_Source\PSoC5/cyfitter_cfg.c **** 	CY_SET_XTND_REG8((void CYFAR *)(CYREG_BG_DFT0), (bg_xover_inl_trim & 0x07u));
 134              		.loc 1 280 0
 135 0006 03F00701 		and	r1, r3, #7
 136 000a 094A     		ldr	r2, .L10+4
 137 000c 1170     		strb	r1, [r2]
 281:Generated_Source\PSoC5/cyfitter_cfg.c **** 	CY_SET_XTND_REG8((void CYFAR *)(CYREG_BG_DFT1), ((bg_xover_inl_trim >> 4) & 0x0Fu));
 138              		.loc 1 281 0
 139 000e 1B09     		lsrs	r3, r3, #4
 140              	.LVL13:
 141 0010 0132     		adds	r2, r2, #1
 142 0012 1370     		strb	r3, [r2]
 282:Generated_Source\PSoC5/cyfitter_cfg.c **** 	CY_SET_XTND_REG8((void CYFAR *)CYREG_PRT15_AG, 0x20u);
 143              		.loc 1 282 0
 144 0014 2022     		movs	r2, #32
 145 0016 074B     		ldr	r3, .L10+8
 146 0018 1A70     		strb	r2, [r3]
 283:Generated_Source\PSoC5/cyfitter_cfg.c **** 	CY_SET_XTND_REG8((void CYFAR *)CYREG_DAC0_SW0, 0x02u);
 147              		.loc 1 283 0
 148 001a 0222     		movs	r2, #2
 149 001c 03F68303 		addw	r3, r3, #2179
 150 0020 1A70     		strb	r2, [r3]
 284:Generated_Source\PSoC5/cyfitter_cfg.c **** 	CY_SET_XTND_REG8((void CYFAR *)CYREG_PUMP_CR0, 0x44u);
 151              		.loc 1 284 0
 152 0022 4422     		movs	r2, #68
 153 0024 A3F20A23 		subw	r3, r3, #522
 154 0028 1A70     		strb	r2, [r3]
 155 002a 7047     		bx	lr
 156              	.L11:
 157              		.align	2
 158              	.L10:
 159 002c CF010049 		.word	1224737231
 160 0030 6E580040 		.word	1073764462
 161 0034 FD510040 		.word	1073762813
 162              		.cfi_endproc
 163              	.LFE6:
 164              		.size	AnalogSetDefault, .-AnalogSetDefault
 165              		.section	.text.CYMEMZERO,"ax",%progbits
 166              		.align	2
 167              		.thumb
 168              		.thumb_func
 169              		.type	CYMEMZERO, %function
ARM GAS  C:\Users\bourg\AppData\Local\Temp\ccVXPP01.s 			page 9


 170              	CYMEMZERO:
 171              	.LFB0:
  78:Generated_Source\PSoC5/cyfitter_cfg.c **** 	(void)memset(s, 0, n);
 172              		.loc 1 78 0
 173              		.cfi_startproc
 174              		@ args = 0, pretend = 0, frame = 0
 175              		@ frame_needed = 0, uses_anonymous_args = 0
 176              	.LVL14:
 177 0000 08B5     		push	{r3, lr}
 178              		.cfi_def_cfa_offset 8
 179              		.cfi_offset 3, -8
 180              		.cfi_offset 14, -4
  79:Generated_Source\PSoC5/cyfitter_cfg.c **** }
 181              		.loc 1 79 0
 182 0002 0A46     		mov	r2, r1
 183 0004 0021     		movs	r1, #0
 184              	.LVL15:
 185 0006 FFF7FEFF 		bl	memset
 186              	.LVL16:
 187 000a 08BD     		pop	{r3, pc}
 188              		.cfi_endproc
 189              	.LFE0:
 190              		.size	CYMEMZERO, .-CYMEMZERO
 191              		.section	.text.ClockSetup,"ax",%progbits
 192              		.align	2
 193              		.thumb
 194              		.thumb_func
 195              		.type	ClockSetup, %function
 196              	ClockSetup:
 197              	.LFB5:
 219:Generated_Source\PSoC5/cyfitter_cfg.c **** 	uint32 timeout;
 198              		.loc 1 219 0
 199              		.cfi_startproc
 200              		@ args = 0, pretend = 0, frame = 0
 201              		@ frame_needed = 0, uses_anonymous_args = 0
 202 0000 38B5     		push	{r3, r4, r5, lr}
 203              		.cfi_def_cfa_offset 16
 204              		.cfi_offset 3, -16
 205              		.cfi_offset 4, -12
 206              		.cfi_offset 5, -8
 207              		.cfi_offset 14, -4
 225:Generated_Source\PSoC5/cyfitter_cfg.c **** 	CY_SET_XTND_REG8((void CYFAR *)(CYREG_CLKDIST_CR), 0x08u);
 208              		.loc 1 225 0
 209 0002 0222     		movs	r2, #2
 210 0004 1E4B     		ldr	r3, .L20
 211 0006 1A70     		strb	r2, [r3]
 226:Generated_Source\PSoC5/cyfitter_cfg.c **** 
 212              		.loc 1 226 0
 213 0008 0822     		movs	r2, #8
 214 000a 4FF04023 		mov	r3, #1073758208
 215 000e 1A70     		strb	r2, [r3]
 229:Generated_Source\PSoC5/cyfitter_cfg.c **** 	CY_SET_XTND_REG8((void CYFAR *)(CYREG_IMO_TR1), (CY_GET_XTND_REG8((void CYFAR *)CYREG_FLSHID_CUST_
 216              		.loc 1 229 0
 217 0010 0321     		movs	r1, #3
 218 0012 03F50073 		add	r3, r3, #512
 219 0016 1970     		strb	r1, [r3]
 230:Generated_Source\PSoC5/cyfitter_cfg.c **** 
ARM GAS  C:\Users\bourg\AppData\Local\Temp\ccVXPP01.s 			page 10


 220              		.loc 1 230 0
 221 0018 1A4B     		ldr	r3, .L20+4
 222 001a 1B78     		ldrb	r3, [r3]	@ zero_extendqisi2
 223 001c DBB2     		uxtb	r3, r3
 224 001e 1A49     		ldr	r1, .L20+8
 225 0020 0B70     		strb	r3, [r1]
 233:Generated_Source\PSoC5/cyfitter_cfg.c **** 	CY_SET_XTND_REG16((void CYFAR *)(CYREG_FASTCLK_PLL_CFG0), 0x1251u);
 226              		.loc 1 233 0
 227 0022 1A4B     		ldr	r3, .L20+12
 228 0024 1A80     		strh	r2, [r3]	@ movhi
 234:Generated_Source\PSoC5/cyfitter_cfg.c **** 	/* Wait up to 250us for the PLL to lock */
 229              		.loc 1 234 0
 230 0026 41F25122 		movw	r2, #4689
 231 002a 023B     		subs	r3, r3, #2
 232 002c 1A80     		strh	r2, [r3]	@ movhi
 233              	.LVL17:
 236:Generated_Source\PSoC5/cyfitter_cfg.c **** 	for (timeout = 250u / 10u; (timeout > 0u) && (pllLock != 0x03u); timeout--)
 234              		.loc 1 236 0
 235 002e 0024     		movs	r4, #0
 237:Generated_Source\PSoC5/cyfitter_cfg.c **** 	{ 
 236              		.loc 1 237 0
 237 0030 1925     		movs	r5, #25
 238 0032 0CE0     		b	.L15
 239              	.LVL18:
 240              	.L17:
 239:Generated_Source\PSoC5/cyfitter_cfg.c **** 		CyDelayCycles(10u * 48u); /* Delay 10us based on 48MHz clock */
 241              		.loc 1 239 0 discriminator 4
 242 0034 164B     		ldr	r3, .L20+16
 243 0036 1B78     		ldrb	r3, [r3]	@ zero_extendqisi2
 244 0038 03F00103 		and	r3, r3, #1
 245 003c 43EA4404 		orr	r4, r3, r4, lsl #1
 246              	.LVL19:
 247 0040 04F00304 		and	r4, r4, #3
 248              	.LVL20:
 240:Generated_Source\PSoC5/cyfitter_cfg.c **** 	}
 249              		.loc 1 240 0 discriminator 4
 250 0044 4FF4F070 		mov	r0, #480
 251 0048 FFF7FEFF 		bl	CyDelayCycles
 252              	.LVL21:
 237:Generated_Source\PSoC5/cyfitter_cfg.c **** 	{ 
 253              		.loc 1 237 0 discriminator 4
 254 004c 013D     		subs	r5, r5, #1
 255              	.LVL22:
 256              	.L15:
 237:Generated_Source\PSoC5/cyfitter_cfg.c **** 	{ 
 257              		.loc 1 237 0 is_stmt 0 discriminator 1
 258 004e 0DB1     		cbz	r5, .L16
 237:Generated_Source\PSoC5/cyfitter_cfg.c **** 	{ 
 259              		.loc 1 237 0 discriminator 3
 260 0050 032C     		cmp	r4, #3
 261 0052 EFD1     		bne	.L17
 262              	.L16:
 243:Generated_Source\PSoC5/cyfitter_cfg.c **** 	{
 263              		.loc 1 243 0 is_stmt 1
 264 0054 15B9     		cbnz	r5, .L18
 245:Generated_Source\PSoC5/cyfitter_cfg.c **** 	}
 265              		.loc 1 245 0
ARM GAS  C:\Users\bourg\AppData\Local\Temp\ccVXPP01.s 			page 11


 266 0056 0320     		movs	r0, #3
 267 0058 FFF7FEFF 		bl	CyClockStartupError
 268              	.LVL23:
 269              	.L18:
 249:Generated_Source\PSoC5/cyfitter_cfg.c **** 	CY_SET_XTND_REG8((void CYFAR *)(CYREG_CLKDIST_MSTR0), 0x07u);
 270              		.loc 1 249 0
 271 005c 0D4B     		ldr	r3, .L20+20
 272 005e 4FF48072 		mov	r2, #256
 273 0062 1A80     		strh	r2, [r3]	@ movhi
 250:Generated_Source\PSoC5/cyfitter_cfg.c **** 	CY_SET_XTND_REG8((void CYFAR *)(CYREG_CLKDIST_BCFG0), 0x00u);
 274              		.loc 1 250 0
 275 0064 0722     		movs	r2, #7
 276 0066 1A70     		strb	r2, [r3]
 251:Generated_Source\PSoC5/cyfitter_cfg.c **** 	CY_SET_XTND_REG8((void CYFAR *)(CYREG_CLKDIST_BCFG2), 0x48u);
 277              		.loc 1 251 0
 278 0068 0022     		movs	r2, #0
 279 006a 0B49     		ldr	r1, .L20+24
 280 006c 0A70     		strb	r2, [r1]
 252:Generated_Source\PSoC5/cyfitter_cfg.c **** 	CY_SET_XTND_REG8((void CYFAR *)(CYREG_CLKDIST_MSTR0), 0x00u);
 281              		.loc 1 252 0
 282 006e 4820     		movs	r0, #72
 283 0070 0231     		adds	r1, r1, #2
 284 0072 0870     		strb	r0, [r1]
 253:Generated_Source\PSoC5/cyfitter_cfg.c **** 	CY_SET_XTND_REG8((void CYFAR *)(CYREG_CLKDIST_LD), 0x02u);
 285              		.loc 1 253 0
 286 0074 1A70     		strb	r2, [r3]
 254:Generated_Source\PSoC5/cyfitter_cfg.c **** }
 287              		.loc 1 254 0
 288 0076 0222     		movs	r2, #2
 289 0078 033B     		subs	r3, r3, #3
 290 007a 1A70     		strb	r2, [r3]
 291 007c 38BD     		pop	{r3, r4, r5, pc}
 292              	.LVL24:
 293              	.L21:
 294 007e 00BF     		.align	2
 295              	.L20:
 296 0080 00430040 		.word	1073758976
 297 0084 08010049 		.word	1224737032
 298 0088 A1460040 		.word	1073759905
 299 008c 22420040 		.word	1073758754
 300 0090 25420040 		.word	1073758757
 301 0094 04400040 		.word	1073758212
 302 0098 06400040 		.word	1073758214
 303              		.cfi_endproc
 304              	.LFE5:
 305              		.size	ClockSetup, .-ClockSetup
 306              		.section	.text.CYCONFIGCPY,"ax",%progbits
 307              		.align	2
 308              		.thumb
 309              		.thumb_func
 310              		.type	CYCONFIGCPY, %function
 311              	CYCONFIGCPY:
 312              	.LFB1:
  85:Generated_Source\PSoC5/cyfitter_cfg.c **** 	(void)memcpy(dest, src, n);
 313              		.loc 1 85 0
 314              		.cfi_startproc
 315              		@ args = 0, pretend = 0, frame = 0
ARM GAS  C:\Users\bourg\AppData\Local\Temp\ccVXPP01.s 			page 12


 316              		@ frame_needed = 0, uses_anonymous_args = 0
 317              	.LVL25:
 318 0000 08B5     		push	{r3, lr}
 319              		.cfi_def_cfa_offset 8
 320              		.cfi_offset 3, -8
 321              		.cfi_offset 14, -4
  86:Generated_Source\PSoC5/cyfitter_cfg.c **** }
 322              		.loc 1 86 0
 323 0002 FFF7FEFF 		bl	memcpy
 324              	.LVL26:
 325 0006 08BD     		pop	{r3, pc}
 326              		.cfi_endproc
 327              	.LFE1:
 328              		.size	CYCONFIGCPY, .-CYCONFIGCPY
 329              		.section	.text.SetAnalogRoutingPumps,"ax",%progbits
 330              		.align	2
 331              		.global	SetAnalogRoutingPumps
 332              		.thumb
 333              		.thumb_func
 334              		.type	SetAnalogRoutingPumps, %function
 335              	SetAnalogRoutingPumps:
 336              	.LFB7:
 285:Generated_Source\PSoC5/cyfitter_cfg.c **** }
 286:Generated_Source\PSoC5/cyfitter_cfg.c **** 
 287:Generated_Source\PSoC5/cyfitter_cfg.c **** 
 288:Generated_Source\PSoC5/cyfitter_cfg.c **** /*******************************************************************************
 289:Generated_Source\PSoC5/cyfitter_cfg.c **** * Function Name: SetAnalogRoutingPumps
 290:Generated_Source\PSoC5/cyfitter_cfg.c **** ********************************************************************************
 291:Generated_Source\PSoC5/cyfitter_cfg.c **** *
 292:Generated_Source\PSoC5/cyfitter_cfg.c **** * Summary:
 293:Generated_Source\PSoC5/cyfitter_cfg.c **** * Enables or disables the analog pumps feeding analog routing switches.
 294:Generated_Source\PSoC5/cyfitter_cfg.c **** * Intended to be called at startup, based on the Vdda system configuration;
 295:Generated_Source\PSoC5/cyfitter_cfg.c **** * may be called during operation when the user informs us that the Vdda voltage
 296:Generated_Source\PSoC5/cyfitter_cfg.c **** * crossed the pump threshold.
 297:Generated_Source\PSoC5/cyfitter_cfg.c **** *
 298:Generated_Source\PSoC5/cyfitter_cfg.c **** * Parameters:
 299:Generated_Source\PSoC5/cyfitter_cfg.c **** *  enabled - 1 to enable the pumps, 0 to disable the pumps
 300:Generated_Source\PSoC5/cyfitter_cfg.c **** *
 301:Generated_Source\PSoC5/cyfitter_cfg.c **** * Return:
 302:Generated_Source\PSoC5/cyfitter_cfg.c **** *  void
 303:Generated_Source\PSoC5/cyfitter_cfg.c **** *
 304:Generated_Source\PSoC5/cyfitter_cfg.c **** *******************************************************************************/
 305:Generated_Source\PSoC5/cyfitter_cfg.c **** void SetAnalogRoutingPumps(uint8 enabled)
 306:Generated_Source\PSoC5/cyfitter_cfg.c **** {
 337              		.loc 1 306 0
 338              		.cfi_startproc
 339              		@ args = 0, pretend = 0, frame = 0
 340              		@ frame_needed = 0, uses_anonymous_args = 0
 341              		@ link register save eliminated.
 342              	.LVL27:
 307:Generated_Source\PSoC5/cyfitter_cfg.c **** 	uint8 regValue = CY_GET_XTND_REG8((void CYFAR *)CYREG_PUMP_CR0);
 343              		.loc 1 307 0
 344 0000 054B     		ldr	r3, .L27
 345 0002 1B78     		ldrb	r3, [r3]	@ zero_extendqisi2
 346 0004 DBB2     		uxtb	r3, r3
 347              	.LVL28:
 308:Generated_Source\PSoC5/cyfitter_cfg.c **** 	if (enabled != 0u)
ARM GAS  C:\Users\bourg\AppData\Local\Temp\ccVXPP01.s 			page 13


 348              		.loc 1 308 0
 349 0006 10B1     		cbz	r0, .L25
 309:Generated_Source\PSoC5/cyfitter_cfg.c **** 	{
 310:Generated_Source\PSoC5/cyfitter_cfg.c **** 		regValue |= 0x22u;
 350              		.loc 1 310 0
 351 0008 43F02203 		orr	r3, r3, #34
 352              	.LVL29:
 353 000c 01E0     		b	.L26
 354              	.L25:
 311:Generated_Source\PSoC5/cyfitter_cfg.c **** 	}
 312:Generated_Source\PSoC5/cyfitter_cfg.c **** 	else
 313:Generated_Source\PSoC5/cyfitter_cfg.c **** 	{
 314:Generated_Source\PSoC5/cyfitter_cfg.c **** 		regValue &= (uint8)~0x22u;
 355              		.loc 1 314 0
 356 000e 03F0DD03 		and	r3, r3, #221
 357              	.LVL30:
 358              	.L26:
 315:Generated_Source\PSoC5/cyfitter_cfg.c **** 	}
 316:Generated_Source\PSoC5/cyfitter_cfg.c **** 	CY_SET_XTND_REG8((void CYFAR *)CYREG_PUMP_CR0, regValue);
 359              		.loc 1 316 0
 360 0012 014A     		ldr	r2, .L27
 361 0014 1370     		strb	r3, [r2]
 362 0016 7047     		bx	lr
 363              	.L28:
 364              		.align	2
 365              	.L27:
 366 0018 76580040 		.word	1073764470
 367              		.cfi_endproc
 368              	.LFE7:
 369              		.size	SetAnalogRoutingPumps, .-SetAnalogRoutingPumps
 370              		.section	.text.cyfitter_cfg,"ax",%progbits
 371              		.align	2
 372              		.global	cyfitter_cfg
 373              		.thumb
 374              		.thumb_func
 375              		.type	cyfitter_cfg, %function
 376              	cyfitter_cfg:
 377              	.LFB8:
 317:Generated_Source\PSoC5/cyfitter_cfg.c **** }
 318:Generated_Source\PSoC5/cyfitter_cfg.c **** 
 319:Generated_Source\PSoC5/cyfitter_cfg.c **** 
 320:Generated_Source\PSoC5/cyfitter_cfg.c **** 
 321:Generated_Source\PSoC5/cyfitter_cfg.c **** 
 322:Generated_Source\PSoC5/cyfitter_cfg.c **** /*******************************************************************************
 323:Generated_Source\PSoC5/cyfitter_cfg.c **** * Function Name: cyfitter_cfg
 324:Generated_Source\PSoC5/cyfitter_cfg.c **** ********************************************************************************
 325:Generated_Source\PSoC5/cyfitter_cfg.c **** * Summary:
 326:Generated_Source\PSoC5/cyfitter_cfg.c **** *  This function is called by the start-up code for the selected device. It
 327:Generated_Source\PSoC5/cyfitter_cfg.c **** *  performs all of the necessary device configuration based on the design
 328:Generated_Source\PSoC5/cyfitter_cfg.c **** *  settings.  This includes settings from the Design Wide Resources (DWR) such
 329:Generated_Source\PSoC5/cyfitter_cfg.c **** *  as Clocks and Pins as well as any component configuration that is necessary.
 330:Generated_Source\PSoC5/cyfitter_cfg.c **** *
 331:Generated_Source\PSoC5/cyfitter_cfg.c **** * Parameters:
 332:Generated_Source\PSoC5/cyfitter_cfg.c **** *   void
 333:Generated_Source\PSoC5/cyfitter_cfg.c **** *
 334:Generated_Source\PSoC5/cyfitter_cfg.c **** * Return:
 335:Generated_Source\PSoC5/cyfitter_cfg.c **** *   void
ARM GAS  C:\Users\bourg\AppData\Local\Temp\ccVXPP01.s 			page 14


 336:Generated_Source\PSoC5/cyfitter_cfg.c **** *
 337:Generated_Source\PSoC5/cyfitter_cfg.c **** *******************************************************************************/
 338:Generated_Source\PSoC5/cyfitter_cfg.c **** 
 339:Generated_Source\PSoC5/cyfitter_cfg.c **** void cyfitter_cfg(void)
 340:Generated_Source\PSoC5/cyfitter_cfg.c **** {
 378              		.loc 1 340 0
 379              		.cfi_startproc
 380              		@ args = 0, pretend = 0, frame = 0
 381              		@ frame_needed = 0, uses_anonymous_args = 0
 382 0000 38B5     		push	{r3, r4, r5, lr}
 383              		.cfi_def_cfa_offset 16
 384              		.cfi_offset 3, -16
 385              		.cfi_offset 4, -12
 386              		.cfi_offset 5, -8
 387              		.cfi_offset 14, -4
 341:Generated_Source\PSoC5/cyfitter_cfg.c **** #ifdef CYGlobalIntDisable
 342:Generated_Source\PSoC5/cyfitter_cfg.c **** 	/* Disable interrupts by default. Let user enable if/when they want. */
 343:Generated_Source\PSoC5/cyfitter_cfg.c **** 	CYGlobalIntDisable
 388              		.loc 1 343 0
 389              		.syntax unified
 390              	@ 343 "Generated_Source\PSoC5\cyfitter_cfg.c" 1
 391 0002 72B6     		CPSID   i
 392              	@ 0 "" 2
 344:Generated_Source\PSoC5/cyfitter_cfg.c **** #endif
 345:Generated_Source\PSoC5/cyfitter_cfg.c **** 
 346:Generated_Source\PSoC5/cyfitter_cfg.c **** 	/* Enable/Disable Debug functionality based on settings from System DWR */
 347:Generated_Source\PSoC5/cyfitter_cfg.c **** 	CY_SET_XTND_REG8((void CYFAR *)CYREG_MLOGIC_DEBUG, (CY_GET_XTND_REG8((void CYFAR *)CYREG_MLOGIC_DE
 393              		.loc 1 347 0
 394              		.thumb
 395              		.syntax unified
 396 0004 284A     		ldr	r2, .L33
 397 0006 1378     		ldrb	r3, [r2]	@ zero_extendqisi2
 398 0008 43F00403 		orr	r3, r3, #4
 399 000c 1370     		strb	r3, [r2]
 400              	.LVL31:
 401              	.LBB3:
 348:Generated_Source\PSoC5/cyfitter_cfg.c **** 
 349:Generated_Source\PSoC5/cyfitter_cfg.c **** 	{
 350:Generated_Source\PSoC5/cyfitter_cfg.c **** 
 351:Generated_Source\PSoC5/cyfitter_cfg.c **** 		CYPACKED typedef struct {
 352:Generated_Source\PSoC5/cyfitter_cfg.c **** 			void CYFAR *address;
 353:Generated_Source\PSoC5/cyfitter_cfg.c **** 			uint16 size;
 354:Generated_Source\PSoC5/cyfitter_cfg.c **** 		} CYPACKED_ATTR cfg_memset_t;
 355:Generated_Source\PSoC5/cyfitter_cfg.c **** 
 356:Generated_Source\PSoC5/cyfitter_cfg.c **** 		static const cfg_memset_t CYCODE cfg_memset_list[] = {
 357:Generated_Source\PSoC5/cyfitter_cfg.c **** 			/* address, size */
 358:Generated_Source\PSoC5/cyfitter_cfg.c **** 			{(void CYFAR *)(CYREG_TMR0_CFG0), 12u},
 359:Generated_Source\PSoC5/cyfitter_cfg.c **** 			{(void CYFAR *)(CYREG_PRT0_DR), 16u},
 360:Generated_Source\PSoC5/cyfitter_cfg.c **** 			{(void CYFAR *)(CYREG_PRT2_DR), 80u},
 361:Generated_Source\PSoC5/cyfitter_cfg.c **** 			{(void CYFAR *)(CYREG_PRT12_DR), 16u},
 362:Generated_Source\PSoC5/cyfitter_cfg.c **** 			{(void CYFAR *)(CYDEV_UCFG_B0_P0_U0_BASE), 4096u},
 363:Generated_Source\PSoC5/cyfitter_cfg.c **** 			{(void CYFAR *)(CYDEV_UCFG_B1_P2_U0_BASE), 2048u},
 364:Generated_Source\PSoC5/cyfitter_cfg.c **** 			{(void CYFAR *)(CYDEV_UCFG_DSI0_BASE), 2560u},
 365:Generated_Source\PSoC5/cyfitter_cfg.c **** 			{(void CYFAR *)(CYDEV_UCFG_DSI12_BASE), 512u},
 366:Generated_Source\PSoC5/cyfitter_cfg.c **** 			{(void CYFAR *)(CYREG_BCTL0_MDCLK_EN), 32u},
 367:Generated_Source\PSoC5/cyfitter_cfg.c **** 		};
 368:Generated_Source\PSoC5/cyfitter_cfg.c **** 
ARM GAS  C:\Users\bourg\AppData\Local\Temp\ccVXPP01.s 			page 15


 369:Generated_Source\PSoC5/cyfitter_cfg.c **** 		uint8 CYDATA i;
 370:Generated_Source\PSoC5/cyfitter_cfg.c **** 
 371:Generated_Source\PSoC5/cyfitter_cfg.c **** 		/* Zero out critical memory blocks before beginning configuration */
 372:Generated_Source\PSoC5/cyfitter_cfg.c **** 		for (i = 0u; i < (sizeof(cfg_memset_list)/sizeof(cfg_memset_list[0])); i++)
 402              		.loc 1 372 0
 403 000e 0024     		movs	r4, #0
 404 0010 0CE0     		b	.L30
 405              	.LVL32:
 406              	.L31:
 407              	.LBB4:
 373:Generated_Source\PSoC5/cyfitter_cfg.c **** 		{
 374:Generated_Source\PSoC5/cyfitter_cfg.c **** 			const cfg_memset_t CYCODE * CYDATA ms = &cfg_memset_list[i];
 375:Generated_Source\PSoC5/cyfitter_cfg.c **** 			CYMEMZERO(ms->address, (size_t)(uint32)(ms->size));
 408              		.loc 1 375 0 discriminator 3
 409 0012 264D     		ldr	r5, .L33+4
 410 0014 6300     		lsls	r3, r4, #1
 411 0016 1919     		adds	r1, r3, r4
 412 0018 4A00     		lsls	r2, r1, #1
 413 001a 1146     		mov	r1, r2
 414 001c 2A44     		add	r2, r2, r5
 415 001e 0846     		mov	r0, r1
 416 0020 9188     		ldrh	r1, [r2, #4]
 417 0022 2858     		ldr	r0, [r5, r0]	@ unaligned
 418 0024 FFF7FEFF 		bl	CYMEMZERO
 419              	.LVL33:
 420              	.LBE4:
 372:Generated_Source\PSoC5/cyfitter_cfg.c **** 		{
 421              		.loc 1 372 0 discriminator 3
 422 0028 0134     		adds	r4, r4, #1
 423              	.LVL34:
 424 002a E4B2     		uxtb	r4, r4
 425              	.LVL35:
 426              	.L30:
 372:Generated_Source\PSoC5/cyfitter_cfg.c **** 		{
 427              		.loc 1 372 0 is_stmt 0 discriminator 1
 428 002c 082C     		cmp	r4, #8
 429 002e F0D9     		bls	.L31
 376:Generated_Source\PSoC5/cyfitter_cfg.c **** 		}
 377:Generated_Source\PSoC5/cyfitter_cfg.c **** 
 378:Generated_Source\PSoC5/cyfitter_cfg.c **** 		cfg_write_bytes32(cy_cfg_addr_table, cy_cfg_data_table);
 430              		.loc 1 378 0 is_stmt 1
 431 0030 1F49     		ldr	r1, .L33+8
 432 0032 4FF09040 		mov	r0, #1207959552
 433 0036 FFF7FEFF 		bl	cfg_write_bytes32
 434              	.LVL36:
 379:Generated_Source\PSoC5/cyfitter_cfg.c **** 
 380:Generated_Source\PSoC5/cyfitter_cfg.c **** 		/* Enable digital routing */
 381:Generated_Source\PSoC5/cyfitter_cfg.c **** 		CY_SET_XTND_REG8((void CYFAR *)CYREG_BCTL0_BANK_CTL, CY_GET_XTND_REG8((void CYFAR *)CYREG_BCTL0_B
 435              		.loc 1 381 0
 436 003a 1E4A     		ldr	r2, .L33+12
 437 003c 1378     		ldrb	r3, [r2]	@ zero_extendqisi2
 438 003e 43F00203 		orr	r3, r3, #2
 439 0042 1370     		strb	r3, [r2]
 382:Generated_Source\PSoC5/cyfitter_cfg.c **** 		CY_SET_XTND_REG8((void CYFAR *)CYREG_BCTL1_BANK_CTL, CY_GET_XTND_REG8((void CYFAR *)CYREG_BCTL1_B
 440              		.loc 1 382 0
 441 0044 1032     		adds	r2, r2, #16
 442 0046 1378     		ldrb	r3, [r2]	@ zero_extendqisi2
ARM GAS  C:\Users\bourg\AppData\Local\Temp\ccVXPP01.s 			page 16


 443 0048 43F00203 		orr	r3, r3, #2
 444 004c 1370     		strb	r3, [r2]
 383:Generated_Source\PSoC5/cyfitter_cfg.c **** 
 384:Generated_Source\PSoC5/cyfitter_cfg.c **** 		/* Enable UDB array */
 385:Generated_Source\PSoC5/cyfitter_cfg.c **** 		CY_SET_XTND_REG8((void CYFAR *)CYREG_PM_ACT_CFG0, CY_GET_XTND_REG8((void CYFAR *)CYREG_PM_ACT_CFG
 445              		.loc 1 385 0
 446 004e 1A4C     		ldr	r4, .L33+16
 447              	.LVL37:
 448 0050 2378     		ldrb	r3, [r4]	@ zero_extendqisi2
 449 0052 43F04003 		orr	r3, r3, #64
 450 0056 2370     		strb	r3, [r4]
 386:Generated_Source\PSoC5/cyfitter_cfg.c **** 		CY_SET_XTND_REG8((void CYFAR *)CYREG_PM_AVAIL_CR2, CY_GET_XTND_REG8((void CYFAR *)CYREG_PM_AVAIL_
 451              		.loc 1 386 0
 452 0058 A2F58632 		sub	r2, r2, #68608
 453 005c 513A     		subs	r2, r2, #81
 454 005e 1378     		ldrb	r3, [r2]	@ zero_extendqisi2
 455 0060 43F01003 		orr	r3, r3, #16
 456 0064 1370     		strb	r3, [r2]
 457              	.LBE3:
 387:Generated_Source\PSoC5/cyfitter_cfg.c **** 	}
 388:Generated_Source\PSoC5/cyfitter_cfg.c **** 
 389:Generated_Source\PSoC5/cyfitter_cfg.c **** 
 390:Generated_Source\PSoC5/cyfitter_cfg.c **** 	/* Perform second pass device configuration. These items must be configured in specific order afte
 391:Generated_Source\PSoC5/cyfitter_cfg.c **** 	CYCONFIGCPY((void CYFAR *)(CYREG_PRT15_DM0), (const void CYFAR *)(BS_IOPINS0_8_VAL), 8u);
 458              		.loc 1 391 0
 459 0066 0822     		movs	r2, #8
 460 0068 1449     		ldr	r1, .L33+20
 461 006a 1548     		ldr	r0, .L33+24
 462 006c FFF7FEFF 		bl	CYCONFIGCPY
 463              	.LVL38:
 392:Generated_Source\PSoC5/cyfitter_cfg.c **** 	CYCONFIGCPY((void CYFAR *)(CYREG_PRT1_DM0), (const void CYFAR *)(BS_IOPINS0_1_VAL), 8u);
 464              		.loc 1 392 0
 465 0070 0822     		movs	r2, #8
 466 0072 1449     		ldr	r1, .L33+28
 467 0074 1448     		ldr	r0, .L33+32
 468 0076 FFF7FEFF 		bl	CYCONFIGCPY
 469              	.LVL39:
 393:Generated_Source\PSoC5/cyfitter_cfg.c **** 	/* Switch Boost to the precision bandgap reference from its internal reference */
 394:Generated_Source\PSoC5/cyfitter_cfg.c **** 	CY_SET_REG8((void CYXDATA *)CYREG_BOOST_CR2, (CY_GET_REG8((void CYXDATA *)CYREG_BOOST_CR2) | 0x08u
 470              		.loc 1 394 0
 471 007a 144A     		ldr	r2, .L33+36
 472 007c 1378     		ldrb	r3, [r2]	@ zero_extendqisi2
 473 007e 43F00803 		orr	r3, r3, #8
 474 0082 1370     		strb	r3, [r2]
 395:Generated_Source\PSoC5/cyfitter_cfg.c **** 
 396:Generated_Source\PSoC5/cyfitter_cfg.c **** 	/* Set Flash Cycles based on max possible frequency in case a glitch occurs during ClockSetup(). *
 397:Generated_Source\PSoC5/cyfitter_cfg.c **** 	CY_SET_XTND_REG8((void CYFAR *)(CYREG_CACHE_CC_CTL), (((CYDEV_INSTRUCT_CACHE_ENABLED) != 0) ? 0x61
 475              		.loc 1 397 0
 476 0084 124D     		ldr	r5, .L33+40
 477 0086 6123     		movs	r3, #97
 478 0088 2B70     		strb	r3, [r5]
 398:Generated_Source\PSoC5/cyfitter_cfg.c **** 	/* Setup clocks based on selections from Clock DWR */
 399:Generated_Source\PSoC5/cyfitter_cfg.c **** 	ClockSetup();
 479              		.loc 1 399 0
 480 008a FFF7FEFF 		bl	ClockSetup
 481              	.LVL40:
 400:Generated_Source\PSoC5/cyfitter_cfg.c **** 	/* Set Flash Cycles based on newly configured 24.00MHz Bus Clock. */
ARM GAS  C:\Users\bourg\AppData\Local\Temp\ccVXPP01.s 			page 17


 401:Generated_Source\PSoC5/cyfitter_cfg.c **** 	CY_SET_XTND_REG8((void CYFAR *)(CYREG_CACHE_CC_CTL), (((CYDEV_INSTRUCT_CACHE_ENABLED) != 0) ? 0x81
 482              		.loc 1 401 0
 483 008e 8123     		movs	r3, #129
 484 0090 2B70     		strb	r3, [r5]
 402:Generated_Source\PSoC5/cyfitter_cfg.c **** 	CY_SET_XTND_REG8((void CYFAR *)(CYREG_PANTHER_WAITPIPE), 0x01u);
 485              		.loc 1 402 0
 486 0092 0122     		movs	r2, #1
 487 0094 0F4B     		ldr	r3, .L33+44
 488 0096 1A70     		strb	r2, [r3]
 403:Generated_Source\PSoC5/cyfitter_cfg.c **** 
 404:Generated_Source\PSoC5/cyfitter_cfg.c **** 	/* Perform basic analog initialization to defaults */
 405:Generated_Source\PSoC5/cyfitter_cfg.c **** 	AnalogSetDefault();
 489              		.loc 1 405 0
 490 0098 FFF7FEFF 		bl	AnalogSetDefault
 491              	.LVL41:
 406:Generated_Source\PSoC5/cyfitter_cfg.c **** 
 407:Generated_Source\PSoC5/cyfitter_cfg.c **** 	/* Configure alternate active mode */
 408:Generated_Source\PSoC5/cyfitter_cfg.c **** 	CYCONFIGCPY((void CYFAR *)CYDEV_PM_STBY_BASE, (const void CYFAR *)CYDEV_PM_ACT_BASE, 14u);
 492              		.loc 1 408 0
 493 009c 0E22     		movs	r2, #14
 494 009e 2146     		mov	r1, r4
 495 00a0 0D48     		ldr	r0, .L33+48
 496 00a2 FFF7FEFF 		bl	CYCONFIGCPY
 497              	.LVL42:
 498 00a6 38BD     		pop	{r3, r4, r5, pc}
 499              	.L34:
 500              		.align	2
 501              	.L33:
 502 00a8 E8460040 		.word	1073759976
 503 00ac 00000000 		.word	.LANCHOR0
 504 00b0 1C000048 		.word	1207959580
 505 00b4 03500140 		.word	1073827843
 506 00b8 A0430040 		.word	1073759136
 507 00bc 38000048 		.word	1207959608
 508 00c0 F2510040 		.word	1073762802
 509 00c4 40000048 		.word	1207959616
 510 00c8 12510040 		.word	1073762578
 511 00cc 22430040 		.word	1073759010
 512 00d0 00480040 		.word	1073760256
 513 00d4 04000840 		.word	1074266116
 514 00d8 B0430040 		.word	1073759152
 515              		.cfi_endproc
 516              	.LFE8:
 517              		.size	cyfitter_cfg, .-cyfitter_cfg
 518              		.section	.rodata
 519              		.align	2
 520              		.set	.LANCHOR0,. + 0
 521              		.type	cfg_memset_list.5013, %object
 522              		.size	cfg_memset_list.5013, 54
 523              	cfg_memset_list.5013:
 524 0000 004F0040 		.word	1073762048
 525 0004 0C00     		.short	12
 526 0006 00510040 		.4byte	1073762560
 527 000a 1000     		.short	16
 528 000c 20510040 		.word	1073762592
 529 0010 5000     		.short	80
 530 0012 C0510040 		.4byte	1073762752
ARM GAS  C:\Users\bourg\AppData\Local\Temp\ccVXPP01.s 			page 18


 531 0016 1000     		.short	16
 532 0018 00000140 		.word	1073807360
 533 001c 0010     		.short	4096
 534 001e 00140140 		.4byte	1073812480
 535 0022 0008     		.short	2048
 536 0024 00400140 		.word	1073823744
 537 0028 000A     		.short	2560
 538 002a 004C0140 		.4byte	1073826816
 539 002e 0002     		.short	512
 540 0030 00500140 		.word	1073827840
 541 0034 2000     		.short	32
 542              		.text
 543              	.Letext0:
 544              		.file 2 "c:\\program files (x86)\\cypress\\psoc creator\\4.4\\psoc creator\\import\\gnu\\arm\\5.4.
 545              		.file 3 "Generated_Source\\PSoC5\\cytypes.h"
 546              		.file 4 "Generated_Source\\PSoC5\\CyLib.h"