ARM GAS  C:\Users\bourg\AppData\Local\Temp\ccvQwVoV.s 			page 1


   1              		.syntax unified
   2              		.cpu cortex-m3
   3              		.fpu softvfp
   4              		.eabi_attribute 20, 1
   5              		.eabi_attribute 21, 1
   6              		.eabi_attribute 23, 3
   7              		.eabi_attribute 24, 1
   8              		.eabi_attribute 25, 1
   9              		.eabi_attribute 26, 1
  10              		.eabi_attribute 30, 1
  11              		.eabi_attribute 34, 1
  12              		.eabi_attribute 18, 4
  13              		.thumb
  14              		.syntax unified
  15              		.file	"keypad.c"
  16              		.text
  17              	.Ltext0:
  18              		.cfi_sections	.debug_frame
  19              		.section	.text.keypadInit,"ax",%progbits
  20              		.align	2
  21              		.global	keypadInit
  22              		.thumb
  23              		.thumb_func
  24              		.type	keypadInit, %function
  25              	keypadInit:
  26              	.LFB63:
  27              		.file 1 "keypad.c"
   1:keypad.c      **** /* ========================================
   2:keypad.c      ****  *
   3:keypad.c      ****  * Copyright YOUR COMPANY, THE YEAR
   4:keypad.c      ****  * All Rights Reserved
   5:keypad.c      ****  * UNPUBLISHED, LICENSED SOFTWARE.
   6:keypad.c      ****  *
   7:keypad.c      ****  * CONFIDENTIAL AND PROPRIETARY INFORMATION
   8:keypad.c      ****  * WHICH IS THE PROPERTY OF your company.
   9:keypad.c      ****  *
  10:keypad.c      ****  * ========================================
  11:keypad.c      **** */
  12:keypad.c      **** #include "project.h"
  13:keypad.c      **** 
  14:keypad.c      **** #define KBD_DELAY   5
  15:keypad.c      **** 
  16:keypad.c      **** 
  17:keypad.c      **** void keypadInit (void) {
  28              		.loc 1 17 0
  29              		.cfi_startproc
  30              		@ args = 0, pretend = 0, frame = 0
  31              		@ frame_needed = 0, uses_anonymous_args = 0
  32 0000 08B5     		push	{r3, lr}
  33              		.cfi_def_cfa_offset 8
  34              		.cfi_offset 3, -8
  35              		.cfi_offset 14, -4
  18:keypad.c      ****     COL1_Write(1);
  36              		.loc 1 18 0
  37 0002 0120     		movs	r0, #1
  38 0004 FFF7FEFF 		bl	COL1_Write
  39              	.LVL0:
ARM GAS  C:\Users\bourg\AppData\Local\Temp\ccvQwVoV.s 			page 2


  19:keypad.c      ****     COL2_Write(1);
  40              		.loc 1 19 0
  41 0008 0120     		movs	r0, #1
  42 000a FFF7FEFF 		bl	COL2_Write
  43              	.LVL1:
  20:keypad.c      ****     COL3_Write(1);
  44              		.loc 1 20 0
  45 000e 0120     		movs	r0, #1
  46 0010 FFF7FEFF 		bl	COL3_Write
  47              	.LVL2:
  48 0014 08BD     		pop	{r3, pc}
  49              		.cfi_endproc
  50              	.LFE63:
  51              		.size	keypadInit, .-keypadInit
  52 0016 00BF     		.section	.text.keypadScan,"ax",%progbits
  53              		.align	2
  54              		.global	keypadScan
  55              		.thumb
  56              		.thumb_func
  57              		.type	keypadScan, %function
  58              	keypadScan:
  59              	.LFB64:
  21:keypad.c      **** }
  22:keypad.c      **** 
  23:keypad.c      **** uint8_t keypadScan (void) {
  60              		.loc 1 23 0
  61              		.cfi_startproc
  62              		@ args = 0, pretend = 0, frame = 0
  63              		@ frame_needed = 0, uses_anonymous_args = 0
  64 0000 08B5     		push	{r3, lr}
  65              		.cfi_def_cfa_offset 8
  66              		.cfi_offset 3, -8
  67              		.cfi_offset 14, -4
  24:keypad.c      ****     COL1_Write(0);
  68              		.loc 1 24 0
  69 0002 0020     		movs	r0, #0
  70 0004 FFF7FEFF 		bl	COL1_Write
  71              	.LVL3:
  25:keypad.c      ****     CyDelay(KBD_DELAY);
  72              		.loc 1 25 0
  73 0008 0520     		movs	r0, #5
  74 000a FFF7FEFF 		bl	CyDelay
  75              	.LVL4:
  76              	.LBB2:
  26:keypad.c      ****     if (!ROW0_Read()) {
  77              		.loc 1 26 0
  78 000e FFF7FEFF 		bl	ROW0_Read
  79              	.LVL5:
  80 0012 20B9     		cbnz	r0, .L4
  27:keypad.c      ****         COL1_Write(1);
  81              		.loc 1 27 0
  82 0014 0120     		movs	r0, #1
  83 0016 FFF7FEFF 		bl	COL1_Write
  84              	.LVL6:
  28:keypad.c      ****         return('#');
  85              		.loc 1 28 0
  86 001a 2320     		movs	r0, #35
ARM GAS  C:\Users\bourg\AppData\Local\Temp\ccvQwVoV.s 			page 3


  87 001c 08BD     		pop	{r3, pc}
  88              	.L4:
  89              	.LBE2:
  90              	.LBB3:
  29:keypad.c      ****     }
  30:keypad.c      ****     if (!ROW1_Read()) {
  91              		.loc 1 30 0
  92 001e FFF7FEFF 		bl	ROW1_Read
  93              	.LVL7:
  94 0022 20B9     		cbnz	r0, .L6
  31:keypad.c      ****         COL1_Write(1);
  95              		.loc 1 31 0
  96 0024 0120     		movs	r0, #1
  97 0026 FFF7FEFF 		bl	COL1_Write
  98              	.LVL8:
  32:keypad.c      ****         return('9');
  99              		.loc 1 32 0
 100 002a 3920     		movs	r0, #57
 101 002c 08BD     		pop	{r3, pc}
 102              	.L6:
 103              	.LBE3:
 104              	.LBB4:
  33:keypad.c      ****     }
  34:keypad.c      ****     if (!ROW2_Read()) {
 105              		.loc 1 34 0
 106 002e FFF7FEFF 		bl	ROW2_Read
 107              	.LVL9:
 108 0032 20B9     		cbnz	r0, .L7
  35:keypad.c      ****         COL1_Write(1);
 109              		.loc 1 35 0
 110 0034 0120     		movs	r0, #1
 111 0036 FFF7FEFF 		bl	COL1_Write
 112              	.LVL10:
  36:keypad.c      ****         return('6');
 113              		.loc 1 36 0
 114 003a 3620     		movs	r0, #54
 115 003c 08BD     		pop	{r3, pc}
 116              	.L7:
 117              	.LBE4:
 118              	.LBB5:
  37:keypad.c      ****     }
  38:keypad.c      ****     if (!ROW3_Read()) {
 119              		.loc 1 38 0
 120 003e FFF7FEFF 		bl	ROW3_Read
 121              	.LVL11:
 122 0042 20B9     		cbnz	r0, .L8
  39:keypad.c      ****         COL1_Write(1);
 123              		.loc 1 39 0
 124 0044 0120     		movs	r0, #1
 125 0046 FFF7FEFF 		bl	COL1_Write
 126              	.LVL12:
  40:keypad.c      ****         return('3');
 127              		.loc 1 40 0
 128 004a 3320     		movs	r0, #51
 129 004c 08BD     		pop	{r3, pc}
 130              	.L8:
 131              	.LBE5:
ARM GAS  C:\Users\bourg\AppData\Local\Temp\ccvQwVoV.s 			page 4


  41:keypad.c      ****     }
  42:keypad.c      ****     COL1_Write(1);
 132              		.loc 1 42 0
 133 004e 0120     		movs	r0, #1
 134 0050 FFF7FEFF 		bl	COL1_Write
 135              	.LVL13:
  43:keypad.c      ****     
  44:keypad.c      ****     COL2_Write(0);
 136              		.loc 1 44 0
 137 0054 0020     		movs	r0, #0
 138 0056 FFF7FEFF 		bl	COL2_Write
 139              	.LVL14:
  45:keypad.c      ****     CyDelay(KBD_DELAY);
 140              		.loc 1 45 0
 141 005a 0520     		movs	r0, #5
 142 005c FFF7FEFF 		bl	CyDelay
 143              	.LVL15:
 144              	.LBB6:
  46:keypad.c      ****     if (!ROW0_Read()) {
 145              		.loc 1 46 0
 146 0060 FFF7FEFF 		bl	ROW0_Read
 147              	.LVL16:
 148 0064 20B9     		cbnz	r0, .L9
  47:keypad.c      ****         COL2_Write(1);
 149              		.loc 1 47 0
 150 0066 0120     		movs	r0, #1
 151 0068 FFF7FEFF 		bl	COL2_Write
 152              	.LVL17:
  48:keypad.c      ****         return('0');
 153              		.loc 1 48 0
 154 006c 3020     		movs	r0, #48
 155 006e 08BD     		pop	{r3, pc}
 156              	.L9:
 157              	.LBE6:
 158              	.LBB7:
  49:keypad.c      ****     }
  50:keypad.c      ****     if (!ROW1_Read()) {
 159              		.loc 1 50 0
 160 0070 FFF7FEFF 		bl	ROW1_Read
 161              	.LVL18:
 162 0074 20B9     		cbnz	r0, .L10
  51:keypad.c      ****         COL2_Write(1);
 163              		.loc 1 51 0
 164 0076 0120     		movs	r0, #1
 165 0078 FFF7FEFF 		bl	COL2_Write
 166              	.LVL19:
  52:keypad.c      ****         return('8');
 167              		.loc 1 52 0
 168 007c 3820     		movs	r0, #56
 169 007e 08BD     		pop	{r3, pc}
 170              	.L10:
 171              	.LBE7:
 172              	.LBB8:
  53:keypad.c      ****     }
  54:keypad.c      ****     if (!ROW2_Read()) {
 173              		.loc 1 54 0
 174 0080 FFF7FEFF 		bl	ROW2_Read
ARM GAS  C:\Users\bourg\AppData\Local\Temp\ccvQwVoV.s 			page 5


 175              	.LVL20:
 176 0084 20B9     		cbnz	r0, .L11
  55:keypad.c      ****         COL2_Write(1);
 177              		.loc 1 55 0
 178 0086 0120     		movs	r0, #1
 179 0088 FFF7FEFF 		bl	COL2_Write
 180              	.LVL21:
  56:keypad.c      ****         return('5');
 181              		.loc 1 56 0
 182 008c 3520     		movs	r0, #53
 183 008e 08BD     		pop	{r3, pc}
 184              	.L11:
 185              	.LBE8:
 186              	.LBB9:
  57:keypad.c      ****     }
  58:keypad.c      ****     if (!ROW3_Read()) {
 187              		.loc 1 58 0
 188 0090 FFF7FEFF 		bl	ROW3_Read
 189              	.LVL22:
 190 0094 20B9     		cbnz	r0, .L12
  59:keypad.c      ****         COL2_Write(1);
 191              		.loc 1 59 0
 192 0096 0120     		movs	r0, #1
 193 0098 FFF7FEFF 		bl	COL2_Write
 194              	.LVL23:
  60:keypad.c      ****         return('2');
 195              		.loc 1 60 0
 196 009c 3220     		movs	r0, #50
 197 009e 08BD     		pop	{r3, pc}
 198              	.L12:
 199              	.LBE9:
  61:keypad.c      ****     }
  62:keypad.c      ****     COL2_Write(1);
 200              		.loc 1 62 0
 201 00a0 0120     		movs	r0, #1
 202 00a2 FFF7FEFF 		bl	COL2_Write
 203              	.LVL24:
  63:keypad.c      **** 
  64:keypad.c      ****     COL3_Write(0);
 204              		.loc 1 64 0
 205 00a6 0020     		movs	r0, #0
 206 00a8 FFF7FEFF 		bl	COL3_Write
 207              	.LVL25:
  65:keypad.c      ****     CyDelay(KBD_DELAY);
 208              		.loc 1 65 0
 209 00ac 0520     		movs	r0, #5
 210 00ae FFF7FEFF 		bl	CyDelay
 211              	.LVL26:
 212              	.LBB10:
  66:keypad.c      ****     if (!ROW0_Read()) {
 213              		.loc 1 66 0
 214 00b2 FFF7FEFF 		bl	ROW0_Read
 215              	.LVL27:
 216 00b6 20B9     		cbnz	r0, .L13
  67:keypad.c      ****         COL3_Write(1);
 217              		.loc 1 67 0
 218 00b8 0120     		movs	r0, #1
ARM GAS  C:\Users\bourg\AppData\Local\Temp\ccvQwVoV.s 			page 6


 219 00ba FFF7FEFF 		bl	COL3_Write
 220              	.LVL28:
  68:keypad.c      ****         return('*');
 221              		.loc 1 68 0
 222 00be 2A20     		movs	r0, #42
 223 00c0 08BD     		pop	{r3, pc}
 224              	.L13:
 225              	.LBE10:
 226              	.LBB11:
  69:keypad.c      ****     }
  70:keypad.c      ****     if (!ROW1_Read()) {
 227              		.loc 1 70 0
 228 00c2 FFF7FEFF 		bl	ROW1_Read
 229              	.LVL29:
 230 00c6 20B9     		cbnz	r0, .L14
  71:keypad.c      ****         COL3_Write(1);
 231              		.loc 1 71 0
 232 00c8 0120     		movs	r0, #1
 233 00ca FFF7FEFF 		bl	COL3_Write
 234              	.LVL30:
  72:keypad.c      ****         return('7');
 235              		.loc 1 72 0
 236 00ce 3720     		movs	r0, #55
 237 00d0 08BD     		pop	{r3, pc}
 238              	.L14:
 239              	.LBE11:
 240              	.LBB12:
  73:keypad.c      ****     }
  74:keypad.c      ****     if (!ROW2_Read()) {
 241              		.loc 1 74 0
 242 00d2 FFF7FEFF 		bl	ROW2_Read
 243              	.LVL31:
 244 00d6 20B9     		cbnz	r0, .L15
  75:keypad.c      ****         COL3_Write(1);
 245              		.loc 1 75 0
 246 00d8 0120     		movs	r0, #1
 247 00da FFF7FEFF 		bl	COL3_Write
 248              	.LVL32:
  76:keypad.c      ****         return('4');
 249              		.loc 1 76 0
 250 00de 3420     		movs	r0, #52
 251 00e0 08BD     		pop	{r3, pc}
 252              	.L15:
 253              	.LBE12:
 254              	.LBB13:
  77:keypad.c      ****     }
  78:keypad.c      ****     if (!ROW3_Read()) {
 255              		.loc 1 78 0
 256 00e2 FFF7FEFF 		bl	ROW3_Read
 257              	.LVL33:
 258 00e6 20B9     		cbnz	r0, .L16
  79:keypad.c      ****         COL3_Write(1);
 259              		.loc 1 79 0
 260 00e8 0120     		movs	r0, #1
 261 00ea FFF7FEFF 		bl	COL3_Write
 262              	.LVL34:
  80:keypad.c      ****         return('1');
ARM GAS  C:\Users\bourg\AppData\Local\Temp\ccvQwVoV.s 			page 7


 263              		.loc 1 80 0
 264 00ee 3120     		movs	r0, #49
 265 00f0 08BD     		pop	{r3, pc}
 266              	.L16:
 267              	.LBE13:
  81:keypad.c      ****     }
  82:keypad.c      ****     COL3_Write(1);
 268              		.loc 1 82 0
 269 00f2 0120     		movs	r0, #1
 270 00f4 FFF7FEFF 		bl	COL3_Write
 271              	.LVL35:
  83:keypad.c      ****     
  84:keypad.c      ****     return('z');
 272              		.loc 1 84 0
 273 00f8 7A20     		movs	r0, #122
  85:keypad.c      **** }
 274              		.loc 1 85 0
 275 00fa 08BD     		pop	{r3, pc}
 276              		.cfi_endproc
 277              	.LFE64:
 278              		.size	keypadScan, .-keypadScan
 279              		.text
 280              	.Letext0:
 281              		.file 2 "c:\\program files (x86)\\cypress\\psoc creator\\4.4\\psoc creator\\import\\gnu\\arm\\5.4.
 282              		.file 3 "c:\\program files (x86)\\cypress\\psoc creator\\4.4\\psoc creator\\import\\gnu\\arm\\5.4.
 283              		.file 4 "Generated_Source\\PSoC5/CyLib.h"
 284              		.file 5 "Generated_Source\\PSoC5/core_cm3.h"